Archive member included to satisfy reference by file (symbol)

C:/NXP/S32DS.3.4/S32DS/build_tools/gcc_v9.2/gcc-9.2-arm32-eabi/arm-none-eabi/newlib/lib/thumb/v7e-m+fp/hard\libc_nano.a(lib_a-memcpy-stub.o)
                              ./Modules/COM_Management/COMrx.o (memcpy)

Memory Configuration

Name             Origin             Length             Attributes
m_bootVers       0x00000410         0x00000004
int_flash_interrupts 0x00080000         0x00000400
int_flash_config 0x00080400         0x00000010
m_appVers        0x00080410         0x00000004
m_appStartAdrr   0x00080414         0x00000004
m_appSize        0x00080418         0x00000004
int_flash        0x00080420         0x0007fbdc
int_sram_results 0x1ffe0000         0x00000100
int_sram         0x1ffe0100         0x0003df00
int_sram_stack_c0 0x2001e000         0x00001000
ram_rsvd2        0x2001f000         0x00000000
*default*        0x00000000         0xffffffff

Linker script and memory map

LOAD ./INI/INI.o
LOAD ./Middlewares/CAN/CBUctrl.o
LOAD ./Middlewares/CAN/CBUinter.o
LOAD ./Middlewares/CAN/CBUmaint.o
LOAD ./Middlewares/CAN/CBUs.o
LOAD ./Middlewares/FLA/FLA.o
LOAD ./Middlewares/SPC/SPC.o
LOAD ./Middlewares/WDO_Management/WDO.o
LOAD ./Modules/ACTivity_Management/ACT.o
LOAD ./Modules/ACTivity_Management/ACTupdat.o
LOAD ./Modules/CNV/CNV.o
LOAD ./Modules/COM_Management/COM.o
LOAD ./Modules/COM_Management/COMrx.o
LOAD ./Modules/COM_Management/COMtx.o
LOAD ./Modules/CTB/CTB.o
LOAD ./Modules/CTB/CTBCbit.o
LOAD ./Modules/CTB/CTBPbit.o
LOAD ./Modules/CTB/CTBio.o
LOAD ./Modules/DBG/DBG.o
LOAD ./Modules/FSM/FSM.o
LOAD ./Modules/FSM/FSMupdat.o
LOAD ./Modules/MPM/MPM.o
LOAD ./Modules/PARameters_Management/PAR.o
LOAD ./Modules/PARameters_Management/PARcheck.o
LOAD ./Modules/PARameters_Management/PARconfig.o
LOAD ./Modules/PARameters_Management/PARupdat.o
LOAD ./Modules/PWB/PWB.o
LOAD ./Modules/PWB/PWBCbit.o
LOAD ./Modules/PWB/PWBPbit.o
LOAD ./Modules/PWB/PWBio.o
LOAD ./Project_Settings/Startup_Code/Vector_Table.o
LOAD ./Project_Settings/Startup_Code/exceptions.o
LOAD ./Project_Settings/Startup_Code/nvic.o
LOAD ./Project_Settings/Startup_Code/startup.o
LOAD ./Project_Settings/Startup_Code/startup_cm4.o
LOAD ./Project_Settings/Startup_Code/system.o
LOAD ./RTD/src/CDD_Crc.o
LOAD ./RTD/src/CDD_Mcl.o
LOAD ./RTD/src/CDD_Mcl_Ipw.o
LOAD ./RTD/src/CDD_Rm.o
LOAD ./RTD/src/CDD_Rm_Ipw.o
LOAD ./RTD/src/Can.o
LOAD ./RTD/src/Can_Ipw.o
LOAD ./RTD/src/Can_Irq.o
LOAD ./RTD/src/Clock_Ip.o
LOAD ./RTD/src/Clock_Ip_Data.o
LOAD ./RTD/src/Clock_Ip_Divider.o
LOAD ./RTD/src/Clock_Ip_DividerTrigger.o
LOAD ./RTD/src/Clock_Ip_ExtOsc.o
LOAD ./RTD/src/Clock_Ip_FracDiv.o
LOAD ./RTD/src/Clock_Ip_Frequency.o
LOAD ./RTD/src/Clock_Ip_Gate.o
LOAD ./RTD/src/Clock_Ip_IntOsc.o
LOAD ./RTD/src/Clock_Ip_Irq.o
LOAD ./RTD/src/Clock_Ip_Monitor.o
LOAD ./RTD/src/Clock_Ip_Pll.o
LOAD ./RTD/src/Clock_Ip_ProgFreqSwitch.o
LOAD ./RTD/src/Clock_Ip_Selector.o
LOAD ./RTD/src/Clock_Ip_Specific.o
LOAD ./RTD/src/Cmp_Ip.o
LOAD ./RTD/src/Crc_Ip.o
LOAD ./RTD/src/Crc_Ip_Hardware.o
LOAD ./RTD/src/Crc_Ip_Lookup_Tables.o
LOAD ./RTD/src/Crc_Ip_Software.o
LOAD ./RTD/src/CryIf.o
LOAD ./RTD/src/Crypto.o
LOAD ./RTD/src/Crypto_ASRExtension.o
LOAD ./RTD/src/Crypto_Ipw.o
LOAD ./RTD/src/Crypto_KeyManagement.o
LOAD ./RTD/src/Crypto_Util.o
LOAD ./RTD/src/Csec_Ip.o
LOAD ./RTD/src/Csec_Ip_Irq.o
LOAD ./RTD/src/Det.o
LOAD ./RTD/src/Det_stub.o
LOAD ./RTD/src/Dio.o
LOAD ./RTD/src/Dio_Ipw.o
LOAD ./RTD/src/Dma_Ip.o
LOAD ./RTD/src/Dma_Ip_Driver_State.o
LOAD ./RTD/src/Dma_Ip_Hw_Access.o
LOAD ./RTD/src/Dma_Ip_Irq.o
LOAD ./RTD/src/Dma_Ip_Multicore.o
LOAD ./RTD/src/EcuM.o
LOAD ./RTD/src/FlexCAN_Ip.o
LOAD ./RTD/src/FlexCAN_Ip_HwAccess.o
LOAD ./RTD/src/FlexCAN_Ip_Irq.o
LOAD ./RTD/src/Flexio_Mcl_Ip.o
LOAD ./RTD/src/Flexio_Mcl_Ip_HwAccess.o
LOAD ./RTD/src/Flexio_Mcl_Ip_Irq.o
LOAD ./RTD/src/Flexio_Pwm_Ip.o
LOAD ./RTD/src/Flexio_Pwm_Ip_Irq.o
LOAD ./RTD/src/Flexio_Spi_Ip.o
LOAD ./RTD/src/Flexio_Spi_Ip_Irq.o
LOAD ./RTD/src/Fls.o
LOAD ./RTD/src/Fls_IPW.o
LOAD ./RTD/src/Ftfc_Fls_Ip.o
LOAD ./RTD/src/Ftfc_Fls_Ip_Ac.o
LOAD ./RTD/src/Ftm_Gpt_Ip.o
LOAD ./RTD/src/Ftm_Icu_Ip.o
LOAD ./RTD/src/Ftm_Icu_Ip_Irq.o
LOAD ./RTD/src/Ftm_Mcl_Ip.o
LOAD ./RTD/src/Ftm_Pwm_Ip.o
LOAD ./RTD/src/Ftm_Pwm_Ip_Irq.o
LOAD ./RTD/src/Gpio_Dio_Ip.o
LOAD ./RTD/src/Gpt.o
LOAD ./RTD/src/Gpt_Ipw.o
LOAD ./RTD/src/Icu.o
LOAD ./RTD/src/Icu_Ipw.o
LOAD ./RTD/src/IntCtrl_Ip.o
LOAD ./RTD/src/LPit_Gpt_Ip.o
LOAD ./RTD/src/Lpit_Icu_Ip.o
LOAD ./RTD/src/Lpit_Icu_Ip_Irq.o
LOAD ./RTD/src/Lpspi_Ip.o
LOAD ./RTD/src/Lpspi_Ip_Irq.o
LOAD ./RTD/src/Lptmr_Gpt_Ip.o
LOAD ./RTD/src/Lptmr_Icu_Ip.o
LOAD ./RTD/src/Lptmr_Icu_Ip_Irq.o
LOAD ./RTD/src/Mcu.o
LOAD ./RTD/src/Mcu_Dem_Wrapper.o
LOAD ./RTD/src/Mcu_Ipw.o
LOAD ./RTD/src/Mcu_Ipw_Irq.o
LOAD ./RTD/src/Mpu_Ip.o
LOAD ./RTD/src/OsIf_Interrupts.o
LOAD ./RTD/src/OsIf_Timer.o
LOAD ./RTD/src/OsIf_Timer_System.o
LOAD ./RTD/src/OsIf_Timer_System_Internal_Systick.o
LOAD ./RTD/src/Os_counter_api.o
LOAD ./RTD/src/Os_multicore.o
LOAD ./RTD/src/Platform.o
LOAD ./RTD/src/Platform_Ipw.o
LOAD ./RTD/src/Port.o
LOAD ./RTD/src/Port_Ci_Icu_Ip.o
LOAD ./RTD/src/Port_Ci_Icu_Ip_Irq.o
LOAD ./RTD/src/Port_Ci_Port_Ip.o
LOAD ./RTD/src/Port_Ipw.o
LOAD ./RTD/src/Power_Ip.o
LOAD ./RTD/src/Power_Ip_CortexM4.o
LOAD ./RTD/src/Power_Ip_PMC.o
LOAD ./RTD/src/Power_Ip_PMC_Irq.o
LOAD ./RTD/src/Power_Ip_Private.o
LOAD ./RTD/src/Power_Ip_RCM.o
LOAD ./RTD/src/Power_Ip_RCM_Irq.o
LOAD ./RTD/src/Power_Ip_SIM.o
LOAD ./RTD/src/Power_Ip_SMC.o
LOAD ./RTD/src/Pwm.o
LOAD ./RTD/src/Pwm_Ipw.o
LOAD ./RTD/src/Pwm_Ipw_Notif.o
LOAD ./RTD/src/Qspi_Ip.o
LOAD ./RTD/src/Qspi_Ip_Controller.o
LOAD ./RTD/src/Qspi_Ip_Sfdp.o
LOAD ./RTD/src/Ram_Ip.o
LOAD ./RTD/src/SRtc_Ip.o
LOAD ./RTD/src/SchM_Can.o
LOAD ./RTD/src/SchM_Crc.o
LOAD ./RTD/src/SchM_Crypto.o
LOAD ./RTD/src/SchM_Dio.o
LOAD ./RTD/src/SchM_Fls.o
LOAD ./RTD/src/SchM_Gpt.o
LOAD ./RTD/src/SchM_Icu.o
LOAD ./RTD/src/SchM_Mcl.o
LOAD ./RTD/src/SchM_Mcu.o
LOAD ./RTD/src/SchM_Port.o
LOAD ./RTD/src/SchM_Pwm.o
LOAD ./RTD/src/SchM_Rm.o
LOAD ./RTD/src/SchM_Spi.o
LOAD ./RTD/src/SchM_Wdg.o
LOAD ./RTD/src/Spi.o
LOAD ./RTD/src/Spi_Ipw.o
LOAD ./RTD/src/System_Ip.o
LOAD ./RTD/src/Trgmux_Ip.o
LOAD ./RTD/src/Trgmux_Ip_HwAcc.o
LOAD ./RTD/src/WdgIf.o
LOAD ./RTD/src/Wdg_43_Instance0.o
LOAD ./RTD/src/Wdg_Channel.o
LOAD ./RTD/src/Wdg_Ipw.o
LOAD ./RTD/src/Wdg_Ipw_Irq.o
LOAD ./RTD/src/Wdog_Ip.o
LOAD ./SCHeduler/SCH.o
LOAD ./board/Port_Ci_Port_Ip_Cfg.o
LOAD ./generate/IntCtrl_Ip/IntCtrl_Ip_Cfg.o
LOAD ./generate/src/CDD_Mcl_Cfg.o
LOAD ./generate/src/CDD_Mcl_Init_PBcfg.o
LOAD ./generate/src/CDD_Rm_Cfg.o
LOAD ./generate/src/CDD_Rm_Init_PBcfg.o
LOAD ./generate/src/CDD_Rm_Ipw_Init_PBcfg.o
LOAD ./generate/src/Can_Init_PBcfg.o
LOAD ./generate/src/Can_Ipw_Init_PBcfg.o
LOAD ./generate/src/Clock_Ip_Cfg.o
LOAD ./generate/src/Clock_Ip_Init_PBcfg.o
LOAD ./generate/src/Cmp_Ip_Init_PBcfg.o
LOAD ./generate/src/Crc_Cfg.o
LOAD ./generate/src/Crc_Ip_Cfg.o
LOAD ./generate/src/Crypto_Cfg.o
LOAD ./generate/src/Dio_Cfg.o
LOAD ./generate/src/Dma_Ip_Cfg.o
LOAD ./generate/src/Dma_Ip_Init_PBcfg.o
LOAD ./generate/src/FlexCAN_Ip_Init_PBcfg.o
LOAD ./generate/src/Flexio_Mcl_Ip_Init_PBcfg.o
LOAD ./generate/src/Flexio_Pwm_Ip_Init_PBcfg.o
LOAD ./generate/src/Flexio_Spi_Ip_Init_PBcfg.o
LOAD ./generate/src/Fls_Cfg.o
LOAD ./generate/src/Fls_Init_PBcfg.o
LOAD ./generate/src/Ftfc_Fls_Ip_Init_PBcfg.o
LOAD ./generate/src/Ftm_Gpt_Ip_Init_PBcfg.o
LOAD ./generate/src/Ftm_Icu_Ip_Init_PBcfg.o
LOAD ./generate/src/Ftm_Pwm_Ip_Init_PBcfg.o
LOAD ./generate/src/Gpt_Cfg.o
LOAD ./generate/src/Gpt_Init_PBcfg.o
LOAD ./generate/src/Gpt_Ipw_Init_PBcfg.o
LOAD ./generate/src/Icu_Cfg.o
LOAD ./generate/src/Icu_DmaNotification.o
LOAD ./generate/src/Icu_Init_PBcfg.o
LOAD ./generate/src/Icu_Ipw_Init_PBcfg.o
LOAD ./generate/src/LPit_Gpt_Ip_Init_PBcfg.o
LOAD ./generate/src/Lpit_Icu_Ip_Init_PBcfg.o
LOAD ./generate/src/Lpspi_Ip_Init_PBcfg.o
LOAD ./generate/src/Lptmr_Gpt_Ip_Init_PBcfg.o
LOAD ./generate/src/Lptmr_Icu_Ip_Init_PBcfg.o
LOAD ./generate/src/Mcu_Cfg.o
LOAD ./generate/src/Mcu_Init_PBcfg.o
LOAD ./generate/src/Mpu_Ip_Init_PBcfg.o
LOAD ./generate/src/OsIf_Cfg.o
LOAD ./generate/src/Platform_Cfg.o
LOAD ./generate/src/Platform_Ipw_Cfg.o
LOAD ./generate/src/Port_Cfg.o
LOAD ./generate/src/Port_Ci_Icu_Ip_Init_PBcfg.o
LOAD ./generate/src/Port_Ci_Port_Ip_Init_PBcfg.o
LOAD ./generate/src/Port_Init_PBcfg.o
LOAD ./generate/src/Power_Ip_Cfg.o
LOAD ./generate/src/Power_Ip_Init_PBcfg.o
LOAD ./generate/src/Pwm_Init_PBcfg.o
LOAD ./generate/src/Qspi_Ip_Init_PBcfg.o
LOAD ./generate/src/Ram_Ip_Cfg.o
LOAD ./generate/src/Ram_Ip_Init_PBcfg.o
LOAD ./generate/src/SRtc_Ip_Init_PBcfg.o
LOAD ./generate/src/Spi_Init_PBcfg.o
LOAD ./generate/src/Spi_Ipw_Init_PBcfg.o
LOAD ./generate/src/Trgmux_Ip_Cfg.o
LOAD ./generate/src/Trgmux_Ip_Init_PBcfg.o
LOAD ./generate/src/Wdg_43_Instance0_Cfg.o
LOAD ./generate/src/Wdg_43_Instance0_Init_PBcfg.o
LOAD ./generate/src/Wdg_43_Instance0_Ipw_Init_PBcfg.o
LOAD ./generate/src/Wdg_CfgExt.o
LOAD ./generate/src/Wdog_Ip_Init_PBcfg.o
LOAD ./src/main.o
LOAD C:/NXP/S32DS.3.4/S32DS/build_tools/gcc_v9.2/gcc-9.2-arm32-eabi/arm-none-eabi/newlib/lib/thumb/v7e-m+fp/hard\libc_nano.a
LOAD C:/NXP/S32DS.3.4/S32DS/build_tools/gcc_v9.2/gcc-9.2-arm32-eabi/arm-none-eabi/newlib/lib/thumb/v7e-m+fp/hard\libm.a
LOAD c:/nxp/s32ds.3.4/s32ds/build_tools/gcc_v9.2/gcc-9.2-arm32-eabi/bin/../lib/gcc/arm-none-eabi/9.2.0/thumb/v7e-m+fp/hard\libgcc.a
START GROUP
LOAD c:/nxp/s32ds.3.4/s32ds/build_tools/gcc_v9.2/gcc-9.2-arm32-eabi/bin/../lib/gcc/arm-none-eabi/9.2.0/thumb/v7e-m+fp/hard\libgcc.a
LOAD C:/NXP/S32DS.3.4/S32DS/build_tools/gcc_v9.2/gcc-9.2-arm32-eabi/arm-none-eabi/newlib/lib/thumb/v7e-m+fp/hard\libg_nano.a
LOAD C:/NXP/S32DS.3.4/S32DS/build_tools/gcc_v9.2/gcc-9.2-arm32-eabi/arm-none-eabi/newlib/lib/thumb/v7e-m+fp/hard\libc_nano.a
END GROUP
START GROUP
LOAD c:/nxp/s32ds.3.4/s32ds/build_tools/gcc_v9.2/gcc-9.2-arm32-eabi/bin/../lib/gcc/arm-none-eabi/9.2.0/thumb/v7e-m+fp/hard\libgcc.a
LOAD C:/NXP/S32DS.3.4/S32DS/build_tools/gcc_v9.2/gcc-9.2-arm32-eabi/arm-none-eabi/newlib/lib/thumb/v7e-m+fp/hard\libc_nano.a
LOAD C:/NXP/S32DS.3.4/S32DS/build_tools/gcc_v9.2/gcc-9.2-arm32-eabi/arm-none-eabi/newlib/lib/thumb/v7e-m+fp/hard\libnosys.a
END GROUP
START GROUP
LOAD c:/nxp/s32ds.3.4/s32ds/build_tools/gcc_v9.2/gcc-9.2-arm32-eabi/bin/../lib/gcc/arm-none-eabi/9.2.0/thumb/v7e-m+fp/hard\libgcc.a
LOAD C:/NXP/S32DS.3.4/S32DS/build_tools/gcc_v9.2/gcc-9.2-arm32-eabi/arm-none-eabi/newlib/lib/thumb/v7e-m+fp/hard\libc_nano.a
LOAD C:/NXP/S32DS.3.4/S32DS/build_tools/gcc_v9.2/gcc-9.2-arm32-eabi/arm-none-eabi/newlib/lib/thumb/v7e-m+fp/hard\libnosys.a
END GROUP
                0x00000200                HEAP_SIZE = DEFINED (__heap_size__)?__heap_size__:0x200

.flash_interrupts
                0x00080000      0x310
                0x00080000                . = ALIGN (0x1000)
                0x00080000                __interrupts_rom_start = .
 *(.intc_vector)
 .intc_vector   0x00080000      0x310 ./Project_Settings/Startup_Code/Vector_Table.o
                0x00080000                VTABLE
                0x00080310                . = ALIGN (0x4)
                0x00080310                __interrupts_rom_end = .

.flash_config   0x00080400       0x10
 *(.flash_config)
 .flash_config  0x00080400       0x10 ./Project_Settings/Startup_Code/startup_cm4.o

.flash          0x00080420    0x23ee8
                0x00080420                . = ALIGN (0x4)
 *(.startup)
 .startup       0x00080420       0xb8 ./Project_Settings/Startup_Code/startup_cm4.o
                0x00080420                Reset_Handler
                0x00080420                _start
                0x000804a4                MCAL_LTB_TRACE_OFF
                0x000804a6                _end_of_eunit_test
                0x000804d8                . = ALIGN (0x4)
 *(.systeminit)
 .systeminit    0x000804d8        0x2 ./Project_Settings/Startup_Code/exceptions.o
                0x000804d8                NMI_Handler
 *fill*         0x000804da        0x2 
 .systeminit    0x000804dc       0x88 ./Project_Settings/Startup_Code/system.o
                0x000804dc                SystemInit
                0x00080564                . = ALIGN (0x4)
 *(.text.startup)
 .text.startup  0x00080564       0x1c ./src/main.o
                0x00080564                main
                0x00080580                . = ALIGN (0x4)
 *(.text)
 .text          0x00080580      0x184 ./INI/INI.o
                0x00080580                INI_InitDrivers
                0x00080660                INI_InitMiddlewares
                0x00080664                INI_InitLibrairies
                0x00080666                INI_InitModules
                0x000806dc                INI_DeinitDrivers
                0x000806de                INI_DeinitMiddlewares
                0x000806e2                INI_DeinitLibrairies
                0x000806e4                INI_DeinitModules
 .text          0x00080704      0x288 ./Middlewares/CAN/CBUctrl.o
                0x00080704                CBU_SendControlCurrentMeasuresFrame
                0x0008074c                CBU_SendControlPowerMeasuresFrame
                0x00080790                CBU_SendControlTemperatureMeasuresFrame
                0x000807e8                CBU_SendControlVoltageMeasuresFrame
                0x00080830                CBU_SendControlControlStatusFrame
                0x000808c0                CBU_SendControlErrorsWarningsFrame
                0x00080920                CBU_SendControlPbitResultsFrame
                0x00080980                CBU_GetControlPtcuCmdsFrameData
                0x0008098a                CBU_GetErrorResetCmdFrameData
 .text          0x0008098c      0x1e0 ./Middlewares/CAN/CBUinter.o
                0x0008098c                CBU_SendInternalControlRequestFrameCOMETiUnits
                0x00080a50                CBU_SendInternalModeRequestFrameCOMETiUnits
                0x00080aa4                CBU_SendInternalErrorResetRequestFrameCOMETiUnits
                0x00080ae0                CBU_GetInternalCurrentMeasuresFrameData
                0x00080af8                CBU_GetInternalPowerMeasuresFrameData
                0x00080b02                CBU_GetInternalTemperatureMeasuresFrameData
                0x00080b30                CBU_GetInternalVoltageMeasuresFrameData
                0x00080b34                CBU_GetInternalRegulationInfoFrameData
                0x00080b46                CBU_GetInternalControlInfoFrameData
                0x00080b5c                CBU_GetInternalErrorsFrameData
                0x00080b66                CBU_GetInternalWarningsFrameData
 .text          0x00080b6c      0x118 ./Middlewares/CAN/CBUmaint.o
                0x00080b6c                CBU_SendMaintenanceEquipmentTestResponse
                0x00080bd8                CBU_SendMaintenanceParameterResponse
                0x00080c10                CBU_GetMaintenanceEquipmentTestRequest
                0x00080c68                CBU_GetMaintenanceParameterRequest
 .text          0x00080c84      0x2ac ./Middlewares/CAN/CBUs.o
                0x00080c84                CanIf_ControllerBusOff
                0x00080cb4                CanIf_ControllerModeIndication
                0x00080cb6                CanIf_TxConfirmation
                0x00080cb8                CanIf_RxIndication
                0x00080d18                CBU_CreatePduInfo
                0x00080d26                CBU_Init
                0x00080dec                CBU_Deinit
                0x00080e1c                CBU_CheckErrors
                0x00080e7c                CBU_ClearPendingFlag
                0x00080e90                CBU_SendFrame
                0x00080ea4                CanIf_CurrentIcomConfiguration
                0x00080ea6                CBU_SetBitrate
                0x00080f28                CBU_CheckLength
 .text          0x00080f30      0x134 ./Middlewares/FLA/FLA.o
                0x00080f4a                FLA_Init
                0x00080f9c                FLA_Deinit
                0x00080fa8                Fla_GetPartitionSize
                0x00080fc8                FLA_Erase
                0x00080ff4                FLA_Write
                0x0008102c                FLA_Read
 .text          0x00081064       0xe8 ./Middlewares/SPC/SPC.o
                0x00081064                SPC_Init
                0x0008108c                SPC_GetLvVoltageMeasures
                0x000810a8                SPC_GetHvTemperaturesMeasures
                0x000810c4                SPC_GetHvVoltageMeasures
                0x000810e0                SPC_GetHvCurrentMeasures
                0x000810fc                SPC_Deinit
                0x000810fe                spc_RxGetLowVoltageMeasures
                0x00081110                spc_RxGetHvVoltageMeasures
                0x00081124                spc_RxGetHvCurrentMeasures
                0x00081138                spc_RxGetHvTemperaturesMeasures
 .text          0x0008114c       0xa4 ./Middlewares/WDO_Management/WDO.o
                0x0008114c                WDO_Init
                0x00081180                WDO_Deinit
                0x000811ac                WDO_Management
                0x000811bc                WDO_Refresh
 .text          0x000811f0       0x50 ./Modules/ACTivity_Management/ACT.o
                0x000811f0                ACT_Init
                0x00081218                ACT_Deinit
 .text          0x00081240      0x39c ./Modules/ACTivity_Management/ACTupdat.o
                0x000812b4                ACT_UpdateFaults
 .text          0x000815dc      0x540 ./Modules/CNV/CNV.o
                0x000815dc                CNV_Init
                0x00081650                CNV_Deinit
                0x00081654                CNV_ManageInternalErrorResetRequestFrame
                0x000816c0                CNV_GetInternalCurrentMeasuresFrame
                0x000816e8                CNV_GetInternalPowerMeasuresFrame
                0x00081710                CNV_GetInternalTemperatureMeasuresFrame
                0x00081770                CNV_GetInternalVoltageMeasuresFrame
                0x00081798                CNV_GetInternalRegulationInfoFrame
                0x000817d4                CNV_GetInternalControlInfoFrame
                0x00081810                CNV_GetInternalErrorsFrame
                0x00081974                CNV_GetInternalWarningsFrame
                0x000819fc                CNV_getPowercoreUnitsIndex
                0x00081a0c                CNV_updatePowercoreUnitsComlossCounter
                0x00081a30                CNV_Update
 .text          0x00081b1c      0x1b0 ./Modules/COM_Management/COM.o
                0x00081b1c                COM_UpdatePeriodParams
                0x00081b68                COM_Init
                0x00081cb8                COM_Deinit
                0x00081cc8                can_Error
 .text          0x00081ccc      0x404 ./Modules/COM_Management/COMrx.o
                0x00081d00                COM_RxTask
 .text          0x000820d0      0x494 ./Modules/COM_Management/COMtx.o
                0x00082160                COM_TxScheduledTasks
                0x0008245c                COM_TxRequestedTasks
 .text          0x00082564      0x2c8 ./Modules/CTB/CTB.o
                0x00082564                CTB_Init
                0x00082590                CTB_Read_EMERSTOP
                0x000825a0                CTB_Read_Maint
                0x000825b0                CTB_Read_BbAuxAdd
                0x000825d0                CTB_Update
                0x00082818                CTB_Deinit
 .text          0x0008282c      0x100 ./Modules/CTB/CTBCbit.o
                0x0008282c                CTBCbit_Init
                0x00082872                CTBCbit_SetDSO
                0x000828a0                CTBCbit_UnsetDSO
                0x000828ce                CTBCbit_ReadDSO
                0x00082904                CTBCbit_Runtests
                0x00082928                CTBCbit_Deinit
 .text          0x0008292c      0x328 ./Modules/CTB/CTBPbit.o
                0x0008292c                CTBPbit_Init
                0x000829e0                CTBPbit_SetTimePeriod
                0x00082a68                ctbPbit_StartTestDSI
                0x00082af8                ctbPbit_StopTestDSI
                0x00082b76                CTBPbit_ReadDSI
                0x00082bb4                CTBPbit_RunTests
                0x00082bec                CTBPbit_Deinit
                0x00082bee                ctb_dsicpu1_callback
                0x00082bfc                ctb_dsicpu2_callback
                0x00082c0c                ctb_dsicpu3_callback
                0x00082c1c                ctb_dsicpu4_callback
                0x00082c2c                ctb_dsicpu5_callback
                0x00082c3c                ctb_dsicpu6_callback
                0x00082c4c                ctbPbit_DsiPbit2TimerCB
 .text          0x00082c54      0x1a4 ./Modules/CTB/CTBio.o
                0x00082c90                CTBio_Init
                0x00082c92                CTBio_CmdLed
                0x00082cb0                CTBio_RunTests
                0x00082cc0                CTBio_SetLedToBBAuxState
                0x00082df4                CTBio_Deinit
 .text          0x00082df8       0x78 ./Modules/DBG/DBG.o
                0x00082df8                DBG_Init
                0x00082e08                DBG_Update
                0x00082e6c                DBG_Deinit
 .text          0x00082e70       0x18 ./Modules/FSM/FSM.o
                0x00082e70                FSM_Init
                0x00082e84                FSM_Deinit
 .text          0x00082e88      0x23c ./Modules/FSM/FSMupdat.o
                0x00082e88                FSM_Update
 .text          0x000830c4       0x40 ./Modules/MPM/MPM.o
                0x000830c4                MPM_Init
                0x000830d8                MPM_Management
                0x000830f4                MPM_Deinit
 .text          0x00083104      0x188 ./Modules/PARameters_Management/PAR.o
                0x00083104                PAR_Deinit
                0x00083106                PAR_CalculateCRC
                0x00083134                PAR_Init
 .text          0x0008328c       0xd8 ./Modules/PARameters_Management/PARcheck.o
                0x0008328c                PAR_CheckIsValueAllowed
                0x00083314                PAR_IsValidAccess
 .text          0x00083364        0x0 ./Modules/PARameters_Management/PARconfig.o
 .text          0x00083364      0x208 ./Modules/PARameters_Management/PARupdat.o
                0x00083364                PAR_Update
                0x00083468                PAR_SaveParametersInFlash
 .text          0x0008356c      0x5ac ./Modules/PWB/PWB.o
                0x00083584                PWB_Init
                0x000835cc                PWB_Update
                0x00083b04                PWB_Deinit
 .text          0x00083b18      0x124 ./Modules/PWB/PWBCbit.o
                0x00083b18                PWBCbit_Init
                0x00083b2c                PWBCbit_GetLvMeasures
                0x00083b78                PWBCbit_GetHvMeasures
                0x00083c00                PWBCbit_Deinit
                0x00083c02                PWBCBit_UpdatePsValidState
 .text          0x00083c3c       0x28 ./Modules/PWB/PWBPbit.o
                0x00083c3c                PWBPbit_Init
                0x00083c3e                PWBPbit_testTempConsis
                0x00083c42                PWBPbit_testHvCouplerRelay
                0x00083c52                PWBPbit_testLvPrechargeRelay
                0x00083c62                PWBPbit_Deinit
 .text          0x00083c64       0xd8 ./Modules/PWB/PWBio.o
                0x00083c64                PWBio_Init
                0x00083c70                PWBio_SetCdeSwitch
                0x00083ca8                PWBio_UnsetCdeSwitch
                0x00083cdc                PWBio_ReadAuxSwitch
                0x00083cfc                PWBio_RunTests
                0x00083d38                PWBio_Deinit
 .text          0x00083d3c        0x0 ./Project_Settings/Startup_Code/Vector_Table.o
 .text          0x00083d3c       0x12 ./Project_Settings/Startup_Code/exceptions.o
                0x00083d3c                HardFault_Handler
                0x00083d3e                MemManage_Handler
                0x00083d40                BusFault_Handler
                0x00083d42                UsageFault_Handler
                0x00083d44                SVC_Handler
                0x00083d46                DebugMon_Handler
                0x00083d48                PendSV_Handler
                0x00083d4a                SysTick_Handler
                0x00083d4c                undefined_handler
 *fill*         0x00083d4e        0x2 
 .text          0x00083d50       0x5c ./Project_Settings/Startup_Code/nvic.o
                0x00083d50                NVIC_SetPriorityGrouping
                0x00083d64                NVIC_EnableIRQ
                0x00083d7c                NVIC_DisableIRQ
                0x00083d98                NVIC_SetPriority
 .text          0x00083dac       0x54 ./Project_Settings/Startup_Code/startup.o
                0x00083dac                init_data_bss
 .text          0x00083e00        0x0 ./Project_Settings/Startup_Code/startup_cm4.o
 .text          0x00083e00        0x8 ./Project_Settings/Startup_Code/system.o
                0x00083e00                startup_go_to_user_mode
                0x00083e02                default_interrupt_routine
                0x00083e04                Sys_GetCoreID
 .text          0x00083e08        0x0 ./RTD/src/CDD_Crc.o
 .text          0x00083e08        0x0 ./RTD/src/CDD_Mcl.o
 .text          0x00083e08        0x0 ./RTD/src/CDD_Mcl_Ipw.o
 .text          0x00083e08        0x0 ./RTD/src/CDD_Rm.o
 .text          0x00083e08        0x0 ./RTD/src/CDD_Rm_Ipw.o
 .text          0x00083e08        0x0 ./RTD/src/Can.o
 .text          0x00083e08        0x0 ./RTD/src/Can_Ipw.o
 .text          0x00083e08        0x0 ./RTD/src/Can_Irq.o
 .text          0x00083e08       0x14 ./RTD/src/Clock_Ip.o
 .text          0x00083e1c        0x0 ./RTD/src/Clock_Ip_Data.o
 .text          0x00083e1c        0x0 ./RTD/src/Clock_Ip_Divider.o
 .text          0x00083e1c        0x0 ./RTD/src/Clock_Ip_DividerTrigger.o
 .text          0x00083e1c        0x0 ./RTD/src/Clock_Ip_ExtOsc.o
 .text          0x00083e1c        0x0 ./RTD/src/Clock_Ip_FracDiv.o
 .text          0x00083e1c        0x0 ./RTD/src/Clock_Ip_Frequency.o
 .text          0x00083e1c        0x0 ./RTD/src/Clock_Ip_Gate.o
 .text          0x00083e1c        0x0 ./RTD/src/Clock_Ip_IntOsc.o
 .text          0x00083e1c        0x0 ./RTD/src/Clock_Ip_Irq.o
 .text          0x00083e1c        0x0 ./RTD/src/Clock_Ip_Monitor.o
 .text          0x00083e1c        0x0 ./RTD/src/Clock_Ip_Pll.o
 .text          0x00083e1c        0x0 ./RTD/src/Clock_Ip_ProgFreqSwitch.o
 .text          0x00083e1c        0x0 ./RTD/src/Clock_Ip_Selector.o
 .text          0x00083e1c        0x0 ./RTD/src/Clock_Ip_Specific.o
 .text          0x00083e1c        0x0 ./RTD/src/Cmp_Ip.o
 .text          0x00083e1c      0x188 ./RTD/src/Crc_Ip.o
 .text          0x00083fa4        0x0 ./RTD/src/Crc_Ip_Hardware.o
 .text          0x00083fa4        0x0 ./RTD/src/Crc_Ip_Lookup_Tables.o
 .text          0x00083fa4        0x0 ./RTD/src/Crc_Ip_Software.o
 .text          0x00083fa4        0x2 ./RTD/src/CryIf.o
                0x00083fa4                CryIf_CallbackNotification
 .text          0x00083fa6        0x0 ./RTD/src/Crypto.o
 .text          0x00083fa6        0x0 ./RTD/src/Crypto_ASRExtension.o
 *fill*         0x00083fa6        0x2 
 .text          0x00083fa8      0x140 ./RTD/src/Crypto_Ipw.o
                0x00083fa8                Crypto_Ipw_Init
                0x00083fcc                Crypto_Ipw_ProcessJob
                0x00084040                Crypto_Ipw_CancelJob
                0x0008406c                Crypto_Ipw_MainFunction
                0x00084070                Crypto_Ipw_SetSynchronousRequestsTimeout
                0x00084076                Crypto_Ipw_SheSetBootStatus
                0x0008408c                Crypto_Ipw_SheGetStatus
                0x0008409a                Crypto_Ipw_SheGetId
                0x000840b0                Crypto_Ipw_SheDebugChal
                0x000840c0                Crypto_Ipw_SheDebugAuth
                0x000840d0                Crypto_Ipw_SheMPCompression
 .text          0x000840e8        0x0 ./RTD/src/Crypto_KeyManagement.o
 .text          0x000840e8        0x0 ./RTD/src/Crypto_Util.o
 .text          0x000840e8        0x0 ./RTD/src/Csec_Ip.o
 .text          0x000840e8        0xc ./RTD/src/Csec_Ip_Irq.o
                0x000840e8                Csec_Ip_Isr
 .text          0x000840f4        0x0 ./RTD/src/Det.o
 .text          0x000840f4        0x0 ./RTD/src/Det_stub.o
 .text          0x000840f4        0x0 ./RTD/src/Dio.o
 .text          0x000840f4        0x0 ./RTD/src/Dio_Ipw.o
 .text          0x000840f4        0x0 ./RTD/src/Dma_Ip.o
 .text          0x000840f4        0x0 ./RTD/src/Dma_Ip_Driver_State.o
 .text          0x000840f4        0x0 ./RTD/src/Dma_Ip_Hw_Access.o
 .text          0x000840f4        0x0 ./RTD/src/Dma_Ip_Irq.o
 .text          0x000840f4        0x0 ./RTD/src/Dma_Ip_Multicore.o
 .text          0x000840f4        0x0 ./RTD/src/EcuM.o
 .text          0x000840f4       0x14 ./RTD/src/FlexCAN_Ip.o
 .text          0x00084108        0x0 ./RTD/src/FlexCAN_Ip_HwAccess.o
 .text          0x00084108        0x0 ./RTD/src/FlexCAN_Ip_Irq.o
 .text          0x00084108        0x0 ./RTD/src/Flexio_Mcl_Ip.o
 .text          0x00084108        0x0 ./RTD/src/Flexio_Mcl_Ip_HwAccess.o
 .text          0x00084108        0x0 ./RTD/src/Flexio_Mcl_Ip_Irq.o
 .text          0x00084108      0x340 ./RTD/src/Flexio_Pwm_Ip.o
                0x0008411c                Flexio_Pwm_Ip_UpdatePeriodDuty
                0x000841c4                Flexio_Pwm_Ip_GetOutputState
                0x000841fc                Flexio_Pwm_Ip_UpdateInterruptMode
                0x00084288                Flexio_Pwm_Ip_InitChannel
                0x0008437c                Flexio_Pwm_Ip_DeInitChannel
                0x00084410                Flexio_Pwm_Ip_GetPeriod
 .text          0x00084448        0x0 ./RTD/src/Flexio_Pwm_Ip_Irq.o
 .text          0x00084448        0x0 ./RTD/src/Flexio_Spi_Ip.o
 .text          0x00084448        0x0 ./RTD/src/Flexio_Spi_Ip_Irq.o
 .text          0x00084448        0x0 ./RTD/src/Fls.o
 .text          0x00084448       0x46 ./RTD/src/Fls_IPW.o
 .text          0x0008448e       0x14 ./RTD/src/Ftfc_Fls_Ip.o
 .text          0x000844a2        0x0 ./RTD/src/Ftfc_Fls_Ip_Ac.o
 .text          0x000844a2        0x0 ./RTD/src/Ftm_Gpt_Ip.o
 .text          0x000844a2        0x0 ./RTD/src/Ftm_Icu_Ip.o
 .text          0x000844a2        0x0 ./RTD/src/Ftm_Icu_Ip_Irq.o
 .text          0x000844a2        0x0 ./RTD/src/Ftm_Mcl_Ip.o
 .text          0x000844a2       0x14 ./RTD/src/Ftm_Pwm_Ip.o
 .text          0x000844b6        0x0 ./RTD/src/Ftm_Pwm_Ip_Irq.o
 .text          0x000844b6        0x0 ./RTD/src/Gpio_Dio_Ip.o
 .text          0x000844b6        0x0 ./RTD/src/Gpt.o
 .text          0x000844b6        0x0 ./RTD/src/Gpt_Ipw.o
 .text          0x000844b6        0x0 ./RTD/src/Icu.o
 .text          0x000844b6        0x0 ./RTD/src/Icu_Ipw.o
 .text          0x000844b6        0x0 ./RTD/src/IntCtrl_Ip.o
 *fill*         0x000844b6        0x2 
 .text          0x000844b8       0x90 ./RTD/src/LPit_Gpt_Ip.o
                0x0008451c                LPIT_0_CH_0_ISR
                0x0008452a                LPIT_0_CH_1_ISR
                0x00084538                LPIT_0_CH_2_ISR
 .text          0x00084548        0x0 ./RTD/src/Lpit_Icu_Ip.o
 .text          0x00084548        0x0 ./RTD/src/Lpit_Icu_Ip_Irq.o
 .text          0x00084548        0x0 ./RTD/src/Lpspi_Ip.o
 .text          0x00084548        0x0 ./RTD/src/Lpspi_Ip_Irq.o
 .text          0x00084548        0x0 ./RTD/src/Lptmr_Gpt_Ip.o
 .text          0x00084548        0x0 ./RTD/src/Lptmr_Icu_Ip.o
 .text          0x00084548        0x0 ./RTD/src/Lptmr_Icu_Ip_Irq.o
 .text          0x00084548        0x0 ./RTD/src/Mcu.o
 .text          0x00084548        0x0 ./RTD/src/Mcu_Dem_Wrapper.o
 .text          0x00084548        0x0 ./RTD/src/Mcu_Ipw.o
 .text          0x00084548        0x0 ./RTD/src/Mcu_Ipw_Irq.o
 .text          0x00084548        0x0 ./RTD/src/Mpu_Ip.o
 .text          0x00084548        0x0 ./RTD/src/OsIf_Interrupts.o
 .text          0x00084548        0x0 ./RTD/src/OsIf_Timer.o
 .text          0x00084548        0x0 ./RTD/src/OsIf_Timer_System.o
 .text          0x00084548        0x0 ./RTD/src/OsIf_Timer_System_Internal_Systick.o
 .text          0x00084548        0x8 ./RTD/src/Os_counter_api.o
                0x00084548                GetCounterValue
                0x0008454c                GetElapsedValue
 .text          0x00084550        0x0 ./RTD/src/Os_multicore.o
 .text          0x00084550        0x0 ./RTD/src/Platform.o
 .text          0x00084550        0x0 ./RTD/src/Platform_Ipw.o
 .text          0x00084550        0x0 ./RTD/src/Port.o
 .text          0x00084550        0x0 ./RTD/src/Port_Ci_Icu_Ip.o
 .text          0x00084550        0x0 ./RTD/src/Port_Ci_Icu_Ip_Irq.o
 .text          0x00084550       0x14 ./RTD/src/Port_Ci_Port_Ip.o
 .text          0x00084564        0x0 ./RTD/src/Port_Ipw.o
 .text          0x00084564        0x0 ./RTD/src/Power_Ip.o
 .text          0x00084564        0x0 ./RTD/src/Power_Ip_CortexM4.o
 .text          0x00084564        0x0 ./RTD/src/Power_Ip_PMC.o
 .text          0x00084564        0x0 ./RTD/src/Power_Ip_PMC_Irq.o
 .text          0x00084564        0x0 ./RTD/src/Power_Ip_Private.o
 .text          0x00084564        0x0 ./RTD/src/Power_Ip_RCM.o
 .text          0x00084564        0x0 ./RTD/src/Power_Ip_RCM_Irq.o
 .text          0x00084564        0x0 ./RTD/src/Power_Ip_SIM.o
 .text          0x00084564        0x0 ./RTD/src/Power_Ip_SMC.o
 .text          0x00084564        0x0 ./RTD/src/Pwm.o
 .text          0x00084564        0x0 ./RTD/src/Pwm_Ipw.o
 .text          0x00084564        0x0 ./RTD/src/Pwm_Ipw_Notif.o
 .text          0x00084564        0x0 ./RTD/src/Qspi_Ip.o
 .text          0x00084564        0x0 ./RTD/src/Qspi_Ip_Controller.o
 .text          0x00084564        0x0 ./RTD/src/Qspi_Ip_Sfdp.o
 .text          0x00084564        0x0 ./RTD/src/Ram_Ip.o
 .text          0x00084564        0x0 ./RTD/src/SRtc_Ip.o
 .text          0x00084564        0x6 ./RTD/src/SchM_Can.o
                0x00084564                Can_schm_read_msr
 .text          0x0008456a        0x6 ./RTD/src/SchM_Crc.o
                0x0008456a                Crc_schm_read_msr
 .text          0x00084570        0x6 ./RTD/src/SchM_Crypto.o
                0x00084570                Crypto_schm_read_msr
 .text          0x00084576        0x6 ./RTD/src/SchM_Dio.o
                0x00084576                Dio_schm_read_msr
 .text          0x0008457c        0x6 ./RTD/src/SchM_Fls.o
                0x0008457c                Fls_schm_read_msr
 .text          0x00084582        0x6 ./RTD/src/SchM_Gpt.o
                0x00084582                Gpt_schm_read_msr
 .text          0x00084588        0x6 ./RTD/src/SchM_Icu.o
                0x00084588                Icu_schm_read_msr
 .text          0x0008458e        0x6 ./RTD/src/SchM_Mcl.o
                0x0008458e                Mcl_schm_read_msr
 .text          0x00084594        0x6 ./RTD/src/SchM_Mcu.o
                0x00084594                Mcu_schm_read_msr
 .text          0x0008459a        0x6 ./RTD/src/SchM_Port.o
                0x0008459a                Port_schm_read_msr
 .text          0x000845a0        0x6 ./RTD/src/SchM_Pwm.o
                0x000845a0                Pwm_schm_read_msr
 .text          0x000845a6        0x6 ./RTD/src/SchM_Rm.o
                0x000845a6                Rm_schm_read_msr
 .text          0x000845ac        0x6 ./RTD/src/SchM_Spi.o
                0x000845ac                Spi_schm_read_msr
 .text          0x000845b2        0x6 ./RTD/src/SchM_Wdg.o
                0x000845b2                Wdg_schm_read_msr
 .text          0x000845b8        0x0 ./RTD/src/Spi.o
 .text          0x000845b8        0x0 ./RTD/src/Spi_Ipw.o
 .text          0x000845b8        0x0 ./RTD/src/System_Ip.o
 .text          0x000845b8        0x0 ./RTD/src/Trgmux_Ip.o
 .text          0x000845b8        0x0 ./RTD/src/Trgmux_Ip_HwAcc.o
 .text          0x000845b8        0x0 ./RTD/src/WdgIf.o
 .text          0x000845b8        0x0 ./RTD/src/Wdg_43_Instance0.o
 .text          0x000845b8        0x0 ./RTD/src/Wdg_Channel.o
 .text          0x000845b8        0x0 ./RTD/src/Wdg_Ipw.o
 .text          0x000845b8        0x0 ./RTD/src/Wdg_Ipw_Irq.o
 .text          0x000845b8       0x14 ./RTD/src/Wdog_Ip.o
 .text          0x000845cc      0x370 ./SCHeduler/SCH.o
                0x000845cc                SCH_Init
                0x0008463c                SCH_Deinit
                0x00084660                SCH_MainLoop
                0x00084908                sch_Interruption
 .text          0x0008493c        0x0 ./board/Port_Ci_Port_Ip_Cfg.o
 .text          0x0008493c        0x0 ./generate/IntCtrl_Ip/IntCtrl_Ip_Cfg.o
 .text          0x0008493c        0x0 ./generate/src/CDD_Mcl_Cfg.o
 .text          0x0008493c        0x0 ./generate/src/CDD_Mcl_Init_PBcfg.o
 .text          0x0008493c        0x0 ./generate/src/CDD_Rm_Cfg.o
 .text          0x0008493c        0x0 ./generate/src/CDD_Rm_Init_PBcfg.o
 .text          0x0008493c        0x0 ./generate/src/CDD_Rm_Ipw_Init_PBcfg.o
 .text          0x0008493c        0x0 ./generate/src/Can_Init_PBcfg.o
 .text          0x0008493c        0x0 ./generate/src/Can_Ipw_Init_PBcfg.o
 .text          0x0008493c        0x0 ./generate/src/Clock_Ip_Cfg.o
 .text          0x0008493c        0x0 ./generate/src/Clock_Ip_Init_PBcfg.o
 .text          0x0008493c        0x0 ./generate/src/Cmp_Ip_Init_PBcfg.o
 .text          0x0008493c        0x0 ./generate/src/Crc_Cfg.o
 .text          0x0008493c        0x0 ./generate/src/Crc_Ip_Cfg.o
 .text          0x0008493c        0x0 ./generate/src/Crypto_Cfg.o
 .text          0x0008493c        0x0 ./generate/src/Dio_Cfg.o
 .text          0x0008493c        0x0 ./generate/src/Dma_Ip_Cfg.o
 .text          0x0008493c        0x0 ./generate/src/Dma_Ip_Init_PBcfg.o
 .text          0x0008493c        0x0 ./generate/src/FlexCAN_Ip_Init_PBcfg.o
 .text          0x0008493c        0x0 ./generate/src/Flexio_Mcl_Ip_Init_PBcfg.o
 .text          0x0008493c        0x0 ./generate/src/Flexio_Pwm_Ip_Init_PBcfg.o
 .text          0x0008493c        0x0 ./generate/src/Flexio_Spi_Ip_Init_PBcfg.o
 .text          0x0008493c        0x0 ./generate/src/Fls_Cfg.o
 .text          0x0008493c        0x0 ./generate/src/Fls_Init_PBcfg.o
 .text          0x0008493c        0x0 ./generate/src/Ftfc_Fls_Ip_Init_PBcfg.o
 .text          0x0008493c        0x0 ./generate/src/Ftm_Gpt_Ip_Init_PBcfg.o
 .text          0x0008493c        0x0 ./generate/src/Ftm_Icu_Ip_Init_PBcfg.o
 .text          0x0008493c        0x0 ./generate/src/Ftm_Pwm_Ip_Init_PBcfg.o
 .text          0x0008493c        0x0 ./generate/src/Gpt_Cfg.o
 .text          0x0008493c        0x0 ./generate/src/Gpt_Init_PBcfg.o
 .text          0x0008493c        0x0 ./generate/src/Gpt_Ipw_Init_PBcfg.o
 .text          0x0008493c        0x0 ./generate/src/Icu_Cfg.o
 .text          0x0008493c        0x0 ./generate/src/Icu_DmaNotification.o
 .text          0x0008493c        0x0 ./generate/src/Icu_Init_PBcfg.o
 .text          0x0008493c        0x0 ./generate/src/Icu_Ipw_Init_PBcfg.o
 .text          0x0008493c        0x0 ./generate/src/LPit_Gpt_Ip_Init_PBcfg.o
 .text          0x0008493c        0x0 ./generate/src/Lpit_Icu_Ip_Init_PBcfg.o
 .text          0x0008493c        0x0 ./generate/src/Lpspi_Ip_Init_PBcfg.o
 .text          0x0008493c        0x0 ./generate/src/Lptmr_Gpt_Ip_Init_PBcfg.o
 .text          0x0008493c        0x0 ./generate/src/Lptmr_Icu_Ip_Init_PBcfg.o
 .text          0x0008493c        0x0 ./generate/src/Mcu_Cfg.o
 .text          0x0008493c        0x0 ./generate/src/Mcu_Init_PBcfg.o
 .text          0x0008493c        0x0 ./generate/src/Mpu_Ip_Init_PBcfg.o
 .text          0x0008493c        0x0 ./generate/src/OsIf_Cfg.o
 .text          0x0008493c        0x0 ./generate/src/Platform_Cfg.o
 .text          0x0008493c        0x0 ./generate/src/Platform_Ipw_Cfg.o
 .text          0x0008493c        0x0 ./generate/src/Port_Cfg.o
 .text          0x0008493c        0x0 ./generate/src/Port_Ci_Icu_Ip_Init_PBcfg.o
 .text          0x0008493c        0x0 ./generate/src/Port_Ci_Port_Ip_Init_PBcfg.o
 .text          0x0008493c        0x0 ./generate/src/Port_Init_PBcfg.o
 .text          0x0008493c        0x0 ./generate/src/Power_Ip_Cfg.o
 .text          0x0008493c        0x0 ./generate/src/Power_Ip_Init_PBcfg.o
 .text          0x0008493c        0x0 ./generate/src/Pwm_Init_PBcfg.o
 .text          0x0008493c        0x0 ./generate/src/Qspi_Ip_Init_PBcfg.o
 .text          0x0008493c        0x0 ./generate/src/Ram_Ip_Cfg.o
 .text          0x0008493c        0x0 ./generate/src/Ram_Ip_Init_PBcfg.o
 .text          0x0008493c        0x0 ./generate/src/SRtc_Ip_Init_PBcfg.o
 .text          0x0008493c        0x0 ./generate/src/Spi_Init_PBcfg.o
 .text          0x0008493c        0x0 ./generate/src/Spi_Ipw_Init_PBcfg.o
 .text          0x0008493c        0x0 ./generate/src/Trgmux_Ip_Cfg.o
 .text          0x0008493c        0x0 ./generate/src/Trgmux_Ip_Init_PBcfg.o
 .text          0x0008493c        0x0 ./generate/src/Wdg_43_Instance0_Cfg.o
 .text          0x0008493c        0x0 ./generate/src/Wdg_43_Instance0_Init_PBcfg.o
 .text          0x0008493c        0x0 ./generate/src/Wdg_43_Instance0_Ipw_Init_PBcfg.o
 .text          0x0008493c        0x0 ./generate/src/Wdg_CfgExt.o
 .text          0x0008493c        0x0 ./generate/src/Wdog_Ip_Init_PBcfg.o
 .text          0x0008493c        0x0 ./src/main.o
 .text          0x0008493c        0x0 C:/NXP/S32DS.3.4/S32DS/build_tools/gcc_v9.2/gcc-9.2-arm32-eabi/arm-none-eabi/newlib/lib/thumb/v7e-m+fp/hard\libc_nano.a(lib_a-memcpy-stub.o)
 *(.text*)
 .text.memcpy   0x0008493c       0x1c C:/NXP/S32DS.3.4/S32DS/build_tools/gcc_v9.2/gcc-9.2-arm32-eabi/arm-none-eabi/newlib/lib/thumb/v7e-m+fp/hard\libc_nano.a(lib_a-memcpy-stub.o)
                0x0008493c                memcpy
                0x00084958                . = ALIGN (0x4)
 *(.mcal_text)
 .mcal_text     0x00084958       0xd8 ./RTD/src/CDD_Crc.o
                0x00084990                Crc_Init
                0x000849ac                Crc_SetChannelConfig
                0x000849c8                Crc_SetChannelCalculate
                0x00084a12                Crc_GetChannelResult
 .mcal_text     0x00084a30      0x338 ./RTD/src/CDD_Mcl.o
                0x00084a4a                Mcl_Init
                0x00084a98                Mcl_DeInit
                0x00084acc                Mcl_SetDmaInstanceCommand
                0x00084afc                Mcl_GetDmaInstanceStatus
                0x00084b42                Mcl_SetDmaChannelCommand
                0x00084b72                Mcl_GetDmaChannelStatus
                0x00084bb4                Mcl_SetDmaChannelGlobalList
                0x00084c22                Mcl_SetDmaChannelTransferList
                0x00084c90                Mcl_SetDmaChannelScatterGatherList
                0x00084d06                Mcl_GetDmaChannelParam
                0x00084d36                Mcl_SetDmaChannelScatterGatherConfig
                0x00084d5e                Mcl_SetTrgMuxInput
                0x00084d62                Mcl_SetTrgMuxLock
 .mcal_text     0x00084d68       0x48 ./RTD/src/CDD_Rm.o
                0x00084d68                Rm_Init
                0x00084d94                Rm_Mpu_SetRegionConfig
                0x00084d98                Rm_Mpu_EnableRegion
                0x00084d9c                Rm_Mpu_SetAccessMode
                0x00084da0                Rm_Mpu_GetErrorDetails
 .mcal_text     0x00084db0       0x16 ./RTD/src/CDD_Rm_Ipw.o
                0x00084db0                Rm_Ipw_Mpu_Init
                0x00084db6                Rm_Ipw_Mpu_SetRegionConfig
                0x00084dba                Rm_Ipw_Mpu_EnableRegion
                0x00084dbe                Rm_Ipw_Mpu_SetAccessMode
                0x00084dc2                Rm_Ipw_Mpu_GetErrorDetails
 *fill*         0x00084dc6        0x2 
 .mcal_text     0x00084dc8      0x59c ./RTD/src/Can.o
                0x00084df0                Can_Init
                0x00084eb4                Can_DeInit
                0x00084f24                Can_SetBaudrate
                0x00084f78                Can_SetControllerMode
                0x00085020                Can_DisableControllerInterrupts
                0x0008507c                Can_EnableControllerInterrupts
                0x000850d8                Can_GetControllerErrorState
                0x00085120                Can_GetControllerMode
                0x0008515c                Can_GetControllerRxErrorCounter
                0x000851a4                Can_GetControllerTxErrorCounter
                0x000851ec                Can_Write
                0x00085294                Can_MainFunction_Write
                0x00085296                Can_MainFunction_Read
                0x00085298                Can_MainFunction_BusOff
                0x0008529a                Can_MainFunction_Mode
                0x000852c8                Can_ProcessMesgBufferCommonInterrupt
                0x00085308                Can_ProcessBusOffInterrupt
                0x00085340                Can_ProcessErrorInterrupt
 .mcal_text     0x00085364      0x7c0 ./RTD/src/Can_Ipw.o
                0x00085570                Can_Ipw_Init
                0x0008566c                Can_Ipw_DeInit
                0x00085672                Can_Ipw_SetBaudrate
                0x00085708                Can_Ipw_SetControllerToStartMode
                0x00085828                Can_Ipw_SetControllerToStopMode
                0x000858bc                Can_Ipw_DisableControllerInterrupts
                0x00085904                Can_Ipw_EnableControllerInterrupts
                0x0008594c                Can_Ipw_GetControllerErrorState
                0x0008595a                Can_Ipw_GetControllerTxErrorCounter
                0x00085960                Can_Ipw_GetControllerRxErrorCounter
                0x00085966                Can_Ipw_Write
                0x00085a18                Can_Ipw_MainFunction_Mode
                0x00085a4c                Can_Ipw_ProcessTxMesgBuffer
                0x00085a84                Can_Ipw_ProcessRxMesgBuffer
 .mcal_text     0x00085b24       0x5c ./RTD/src/Can_Irq.o
                0x00085b24                Can_CommonIrqCallback
                0x00085b64                Can_ErrorIrqCallback
 .mcal_text     0x00085b80      0xb98 ./RTD/src/Clock_Ip.o
                0x00085b82                Clock_Ip_GetPllStatus
                0x00085c28                Clock_Ip_DistributePll
                0x00085d1c                Clock_Ip_DisableClockMonitor
                0x00085d44                Clock_Ip_GetClockMonitorStatus
                0x00085d6c                Clock_Ip_ClearClockMonitorStatus
                0x00085d94                Clock_Ip_InstallNotificationsCallback
                0x00085dac                Clock_Ip_DisableModuleClock
                0x00085dd4                Clock_Ip_EnableModuleClock
                0x00085dfc                Clock_Ip_PowerModeChangeNotification
                0x00085e1c                Clock_Ip_GetClockFrequency
                0x00085e3c                Clock_Ip_ReportClockErrors
                0x00085e48                Clock_Ip_StartTimeout
                0x00085e68                Clock_Ip_TimeoutExpired
                0x00085e84                Clock_Ip_GetConfiguredFrequencyValue
                0x00085ebc                Clock_Ip_InitClock
                0x000866e4                Clock_Ip_Init
 .mcal_text     0x00086718      0x1ec ./RTD/src/Clock_Ip_Divider.o
                0x0008671a                Clock_Ip_SetScgAsyncDiv1_TrustedCall
                0x0008674c                Clock_Ip_SetScgAsyncDiv2_TrustedCall
                0x00086780                Clock_Ip_SetScgRunDivcore_TrustedCall
                0x0008679c                Clock_Ip_SetScgRunDivbus_TrustedCall
                0x000867b8                Clock_Ip_SetScgRunDivslow_TrustedCall
                0x000867d4                Clock_Ip_SetScgVlprDivcore_TrustedCall
                0x000867f0                Clock_Ip_SetScgVlprDivbus_TrustedCall
                0x0008680c                Clock_Ip_SetScgVlprDivslow_TrustedCall
                0x00086828                Clock_Ip_SetScgHsrunDivcore_TrustedCall
                0x00086844                Clock_Ip_SetScgHsrunDivbus_TrustedCall
                0x00086860                Clock_Ip_SetScgHsrunDivslow_TrustedCall
                0x0008687c                Clock_Ip_SetSimClkoutDiv_TrustedCall
                0x0008689c                Clock_Ip_SetPccPcdDivFrac_TrustedCall
                0x000868dc                Clock_Ip_SetSimTraceDivMul_TrustedCall
 .mcal_text     0x00086904        0x2 ./RTD/src/Clock_Ip_DividerTrigger.o
 *fill*         0x00086906        0x2 
 .mcal_text     0x00086908      0x190 ./RTD/src/Clock_Ip_ExtOsc.o
                0x00086954                Clock_Ip_ResetSOSC_TrustedCall
                0x00086990                Clock_Ip_SetSOSC_TrustedCall
                0x00086a60                Clock_Ip_DisableSOSC_TrustedCall
                0x00086a78                Clock_Ip_EnableSOSC_TrustedCall
 .mcal_text     0x00086a98        0x6 ./RTD/src/Clock_Ip_FracDiv.o
 *fill*         0x00086a9e        0x2 
 .mcal_text     0x00086aa0      0xe08 ./RTD/src/Clock_Ip_Frequency.o
                0x00087868                Clock_Ip_SetExternalOscillatorFrequency
                0x00087874                Clock_Ip_SetExternalSignalFrequency
                0x00087898                Clock_Ip_GetFreq
 .mcal_text     0x000878a8      0x164 ./RTD/src/Clock_Ip_Gate.o
                0x000878ac                Clock_Ip_ClockSetSimLPO1KEnable_TrustedCall
                0x000878dc                Clock_Ip_ClockSetSimLPO32KEnable_TrustedCall
                0x00087910                Clock_Ip_ClockSetSimClkoutEnable_TrustedCall
                0x00087944                Clock_Ip_ClockSetPccCgcEnable_TrustedCall
                0x0008798c                Clock_Ip_ClockSetSimGate_TrustedCall
                0x000879d4                Clock_Ip_ClockSetSimTraceEnable_TrustedCall
 .mcal_text     0x00087a0c      0x404 ./RTD/src/Clock_Ip_IntOsc.o
                0x00087a60                Clock_Ip_SetSirc_TrustedCall
                0x00087b04                Clock_Ip_EnableSirc_TrustedCall
                0x00087b60                Clock_Ip_DisableSirc_TrustedCall
                0x00087b84                Clock_Ip_SetSircVlp_TrustedCall
                0x00087bbc                Clock_Ip_EnableSircVlp_TrustedCall
                0x00087bdc                Clock_Ip_DisableSircVlp_TrustedCall
                0x00087bf4                Clock_Ip_SetSircStop_TrustedCall
                0x00087c2c                Clock_Ip_EnableSircStop_TrustedCall
                0x00087c4c                Clock_Ip_DisableSircStop_TrustedCall
                0x00087c64                Clock_Ip_SetFirc_TrustedCall
                0x00087da0                Clock_Ip_EnableFirc_TrustedCall
                0x00087df8                Clock_Ip_DisableFirc_TrustedCall
 .mcal_text     0x00087e10        0xa ./RTD/src/Clock_Ip_Monitor.o
 *fill*         0x00087e1a        0x2 
 .mcal_text     0x00087e1c      0x144 ./RTD/src/Clock_Ip_Pll.o
                0x00087e74                Clock_Ip_ResetSpll_TrustedCall
                0x00087ec8                Clock_Ip_SetSpll_TrustedCall
                0x00087f1c                Clock_Ip_DisableSpll_TrustedCall
                0x00087f40                Clock_Ip_EnableSpll_TrustedCall
 .mcal_text     0x00087f60        0x2 ./RTD/src/Clock_Ip_ProgFreqSwitch.o
 *fill*         0x00087f62        0x2 
 .mcal_text     0x00087f64      0x320 ./RTD/src/Clock_Ip_Selector.o
                0x00087f66                Clock_Ip_ResetScgRunSel_TrustedCall
                0x00087f8c                Clock_Ip_SetScgRunSel_TrustedCall
                0x00087fb4                Clock_Ip_SetScgVlprSel_TrustedCall
                0x00087fdc                Clock_Ip_ResetScgHsrunSel_TrustedCall
                0x00088000                Clock_Ip_SetScgHsrunSel_TrustedCall
                0x00088028                Clock_Ip_ResetSimRtcSel_TrustedCall
                0x00088048                Clock_Ip_SetSimRtcSel_TrustedCall
                0x0008806c                Clock_Ip_ResetSimLpoSel_TrustedCall
                0x0008808c                Clock_Ip_SetSimLpoSel_TrustedCall
                0x000880b0                Clock_Ip_ResetScgClkoutSel_TrustedCall
                0x000880d0                Clock_Ip_SetScgClkoutSel_TrustedCall
                0x000880f4                Clock_Ip_ResetSimFtmoptSel_TrustedCall
                0x00088148                Clock_Ip_SetSimFtmoptSel_TrustedCall
                0x0008819c                Clock_Ip_ResetSimClkoutSel_TrustedCall
                0x000881b0                Clock_Ip_SetSimClkoutSel_TrustedCall
                0x000881d4                Clock_Ip_ResetPccPcsSelect_TrustedCall
                0x000881fc                Clock_Ip_SetPccPcsSelect_TrustedCall
                0x00088238                Clock_Ip_ResetSimTraceSel_TrustedCall
                0x0008825c                Clock_Ip_SetSimTraceSel_TrustedCall
 .mcal_text     0x00088284      0x84c ./RTD/src/Clock_Ip_Specific.o
                0x00088284                SetFircToResetValue_TrustedCall
                0x000882a0                SetSimLpoclksRegister_TrustedCall
                0x00088314                Clock_Ip_ClockPowerModeChangeNotification
                0x000884c0                Clock_Ip_Command
 .mcal_text     0x00088ad0      0x2a0 ./RTD/src/Cmp_Ip.o
                0x00088ad0                Cmp_Ip_Init
                0x00088ca0                Cmp_Ip_Deinit
                0x00088cbc                Cmp_Ip_EnableNotification
                0x00088cd0                Cmp_Ip_DisableNotification
                0x00088ce4                Cmp_Ip_EnableInterrupt
                0x00088d48                Cmp_Ip_DisableInterrupt
                0x00088d60                Cmp_Ip_SetInterruptActivation
 .mcal_text     0x00088d70      0x284 ./RTD/src/Crc_Ip.o
                0x00088d74                Crc_Ip_Init
                0x00088da8                Crc_Ip_SetChannelConfig
                0x00088dd8                Crc_Ip_SetChannelCalculate
                0x00088fb8                Crc_Ip_GetChannelResult
 .mcal_text     0x00088ff4      0x114 ./RTD/src/Crc_Ip_Hardware.o
                0x00089014                Crc_Ip_HwSetConfig
                0x000890b8                Crc_Ip_HwCalculate
                0x000890fc                Crc_Ip_HwGetLocResult
 .mcal_text     0x00089108      0x2f4 ./RTD/src/Crc_Ip_Lookup_Tables.o
                0x00089204                Crc_Ip_LookupTablesCalculate
 .mcal_text     0x000893fc      0x294 ./RTD/src/Crc_Ip_Software.o
                0x000894f8                Crc_Ip_SwCalculate
 .mcal_text     0x00089690      0x15c ./RTD/src/Crypto.o
                0x000896a8                Crypto_Init
                0x000896c4                Crypto_ProcessJob
                0x0008977c                Crypto_CancelJob
                0x0008979e                Crypto_KeyElementSet
                0x000897a2                Crypto_KeySetValid
                0x000897a6                Crypto_KeyElementGet
                0x000897aa                Crypto_KeyElementCopy
                0x000897ae                Crypto_KeyElementCopyPartial
                0x000897b2                Crypto_KeyCopy
                0x000897b6                Crypto_KeyElementIdsGet
                0x000897ba                Crypto_RandomSeed
                0x000897be                Crypto_KeyGenerate
                0x000897c2                Crypto_KeyDerive
                0x000897c6                Crypto_KeyExchangeCalcPubVal
                0x000897ca                Crypto_KeyExchangeCalcSecret
                0x000897ce                Crypto_CertificateParse
                0x000897d2                Crypto_CertificateVerify
                0x000897d6                Crypto_MainFunction
 .mcal_text     0x000897ec       0x62 ./RTD/src/Crypto_ASRExtension.o
                0x000897ec                Crypto_Exts_SetSynchronousRequestsTimeout
                0x000897fa                Crypto_Exts_SHE_BootFailure
                0x00089802                Crypto_Exts_SHE_BootOk
                0x0008980a                Crypto_Exts_SHE_GetStatus
                0x00089812                Crypto_Exts_SHE_GetId
                0x00089828                Crypto_Exts_SHE_DebugChal
                0x00089830                Crypto_Exts_SHE_DebugAuth
                0x00089838                Crypto_Exts_MPCompression
 *fill*         0x0008984e        0x2 
 .mcal_text     0x00089850      0x12c ./RTD/src/Crypto_Ipw.o
 .mcal_text     0x0008997c      0x164 ./RTD/src/Crypto_Util.o
                0x0008997c                Crypto_Util_MemCpy8
                0x00089990                Crypto_Util_InitJobQueues
                0x000899cc                Crypto_Util_QueueJob
                0x00089a44                Crypto_Util_DequeueHeadJob
                0x00089a7c                Crypto_Util_DequeueJob
 .mcal_text     0x00089ae0      0xf08 ./RTD/src/Csec_Ip.o
                0x0008a000                Csec_Ip_Init
                0x0008a018                Csec_Ip_Deinit
                0x0008a024                Csec_Ip_LoadKey
                0x0008a0b8                Csec_Ip_LoadPlainKey
                0x0008a110                Csec_Ip_ExportRamKey
                0x0008a1ac                Csec_Ip_InitRng
                0x0008a1f8                Csec_Ip_ExtendSeed
                0x0008a250                Csec_Ip_GenerateRnd
                0x0008a2e4                Csec_Ip_BootFailure
                0x0008a330                Csec_Ip_BootOk
                0x0008a37c                Csec_Ip_BootDefine
                0x0008a3d8                Csec_Ip_GetId
                0x0008a464                Csec_Ip_DbgChal
                0x0008a4c0                Csec_Ip_DbgAuth
                0x0008a518                Csec_Ip_MainFunction
                0x0008a52c                Csec_Ip_CancelCommand
                0x0008a590                Csec_Ip_EncryptEcb
                0x0008a608                Csec_Ip_DecryptEcb
                0x0008a680                Csec_Ip_EncryptCbc
                0x0008a6fc                Csec_Ip_DecryptCbc
                0x0008a778                Csec_Ip_GenerateMac
                0x0008a808                Csec_Ip_VerifyMac
                0x0008a8b0                Csec_Ip_MpCompress
                0x0008a998                Csec_Ip_IrqHandler
                0x0008a9d0                Csec_Ip_SetSynchronousCmdTimeout
                0x0008a9dc                Csec_Ip_GetStatus
 .mcal_text     0x0008a9e8       0xa4 ./RTD/src/Det.o
                0x0008a9e8                Det_Init
                0x0008a9ea                Det_ReportError
                0x0008aa20                Det_ReportRuntimeError
                0x0008aa54                Det_ReportTransientFault
                0x0008aa88                Det_Start
 .mcal_text     0x0008aa8c      0x21c ./RTD/src/Det_stub.o
                0x0008aa8c                Det_TestLastReportError
                0x0008aaf4                Det_TestLastReportRuntimeError
                0x0008ab5c                Det_TestLastReportTransientFault
                0x0008abc4                Det_TestNoError
                0x0008ac10                Det_TestNoRuntimeError
                0x0008ac5c                Det_TestNoTransientFault
 .mcal_text     0x0008aca8       0x1c ./RTD/src/Dio.o
                0x0008aca8                Dio_ReadChannel
                0x0008acac                Dio_WriteChannel
                0x0008acb0                Dio_FlipChannel
                0x0008acb4                Dio_ReadPort
                0x0008acb8                Dio_WritePort
                0x0008acbc                Dio_ReadChannelGroup
                0x0008acc0                Dio_WriteChannelGroup
 .mcal_text     0x0008acc4       0xd4 ./RTD/src/Dio_Ipw.o
                0x0008acc4                Dio_Ipw_ReadChannel
                0x0008acd8                Dio_Ipw_WriteChannel
                0x0008acf4                Dio_Ipw_FlipChannel
                0x0008ad24                Dio_Ipw_ReadPort
                0x0008ad34                Dio_Ipw_WritePort
                0x0008ad44                Dio_Ipw_ReadChannelGroup
                0x0008ad64                Dio_Ipw_WriteChannelGroup
 .mcal_text     0x0008ad98      0x908 ./RTD/src/Dma_Ip.o
                0x0008afa4                Dma_Ip_ConvertLogicChToHwCh
                0x0008afb8                Dma_Ip_SetLogicInstanceCommand
                0x0008afe4                Dma_Ip_GetLogicInstanceStatus
                0x0008affc                Dma_Ip_LogicChannelInit
                0x0008b1b0                Dma_Ip_Init
                0x0008b210                Dma_Ip_LogicChannelDeinit
                0x0008b280                Dma_Ip_Deinit
                0x0008b2ac                Dma_Ip_SetLogicChannelCommand
                0x0008b334                Dma_Ip_GetLogicChannelStatus
                0x0008b394                Dma_Ip_SetLogicChannelGlobalList
                0x0008b420                Dma_Ip_SetLogicChannelTransferList
                0x0008b4f0                Dma_Ip_SetLogicChannelScatterGatherList
                0x0008b598                Dma_Ip_GetLogicChannelParam
                0x0008b5c0                Dma_Ip_SetLogicChannelScatterGatherConfig
                0x0008b648                Dma_Ip_IntIrqHandler
                0x0008b65e                Dma_Ip_ErrorIrqHandler
 .mcal_text     0x0008b6a0       0xf0 ./RTD/src/Dma_Ip_Driver_State.o
                0x0008b718                Dma_Ip_SetHwChannelState
                0x0008b748                Dma_Ip_GetHwChannelState
                0x0008b764                Dma_Ip_GetHwChannelStatePointer
                0x0008b77c                Dma_Ip_SetHwChannelStatePointer
 .mcal_text     0x0008b790      0x7dc ./RTD/src/Dma_Ip_Hw_Access.o
                0x0008b7c4                HwAccDmaCh_SetGlobalDummyFunction
                0x0008b7c6                HwAccDmaCh_SetTransferDummyFunction
                0x0008b7c8                HwAccDmaCh_GetParamDummyFunction
                0x0008b7ca                HwAccDmaCh_CmdSetHwRequest
                0x0008b7dc                HwAccDmaCh_CmdClearHwRequest
                0x0008b7f0                HwAccDmaCh_CmdSetSwRequest
                0x0008b804                HwAccDmaCh_CmdClearDone
                0x0008b818                HwAccDmaCh_CmdClearError
                0x0008b82c                HwAccDmaCh_SetSource_Address
                0x0008b834                HwAccDmaCh_SetSource_SignedOffset
                0x0008b83c                HwAccDmaCh_SetSource_LastAddrAdj
                0x0008b844                HwAccDmaCh_SetDestination_Address
                0x0008b84c                HwAccDmaCh_SetDestination_SignedOffset
                0x0008b854                HwAccDmaCh_SetMajorLoop_Count
                0x0008b862                HwAccDmaCh_GetSourceAddress
                0x0008b876                HwAccDmaCh_GetDestinationAddress
                0x0008b88a                HwAccDmaCh_GetIntMajor
                0x0008b8a2                HwAccDmaCh_GetIntHalfMajor
                0x0008b8ba                HwAccDmaCh_SetSource_TransferSize
                0x0008b8d0                HwAccDmaCh_SetSource_Modulo
                0x0008b8e2                HwAccDmaCh_SetDestination_TransferSize
                0x0008b8f6                HwAccDmaCh_SetDestination_Modulo
                0x0008b90a                HwAccDmaCh_SetMinorLoop_enSrcOffset
                0x0008b91c                HwAccDmaCh_SetMinorLoop_enDstOffset
                0x0008b932                HwAccDmaCh_SetMinorLoop_Offset
                0x0008b950                HwAccDmaCh_SetControl_EnMajor
                0x0008b966                HwAccDmaCh_SetControl_EnHalfMajor
                0x0008b97c                HwAccDmaCh_SetControl_DisAutoHwRequest
                0x0008b992                HwAccDmaCh_SetControl_BandwidthControl
                0x0008b9a4                HwAccDmaCh_GetBeginIterCount
                0x0008b9c4                hwAccDmaInst_CmdCancelTransfer
                0x0008b9dc                hwAccDmaInst_CmdCancelTransferWithError
                0x0008b9f4                hwAccDmaInst_CmdHalt
                0x0008ba0c                hwAccDmaInst_CmdResume
                0x0008ba24                HwAccDmaCh_SetRequest_EnMuxSource
                0x0008ba44                HwAccDmaCh_SetRequest_MuxSource
                0x0008ba64                HwAccDmaCh_SetRequest_EnMuxTrigger
                0x0008ba84                HwAccDmaCh_SetPriority_Level
                0x0008baa8                HwAccDmaCh_SetPriority_EnPreemption
                0x0008bacc                HwAccDmaCh_SetControl_EnStart
                0x0008bae4                HwAccDmaCh_SetPriority_DisPreempt
                0x0008bb0a                HwAccDmaCh_SetInterrupt_EnError
                0x0008bb2c                HwAccDmaCh_SetRequest_EnRequest
                0x0008bb4c                HwAccDmaCh_SetDestination_LastAddrAdj
                0x0008bb54                HwAccDmaCh_GetCurrentIterCount
                0x0008bb74                HwAccDmaCh_SetMajorLoop_EnLink
                0x0008bb8a                HwAccDmaCh_SetMajorLoop_LogicLinkCh
                0x0008bbac                HwAccDmaCh_SetMinorLoop_EnLink
                0x0008bbca                HwAccDmaCh_SetMinorLoop_LogicLinkCh
                0x0008bbf6                HwAccDmaCh_SetMinorLoop_Size
                0x0008bc1a                HwAccDmaInst_SetConfig
                0x0008bc5c                HwAccDmaInst_SetCommand
                0x0008bc6c                HwAccDmaInst_GetStatus
                0x0008bc90                HwAccDmaCh_SetCommand
                0x0008bcac                HwAccDmaCh_GetStatus
                0x0008bcca                HwAccDmaCh_GetStatus_Error
                0x0008bcec                HwAccDmaCh_SetGlobalParam
                0x0008bd0c                HwAccDmaCh_SetTransferParam
                0x0008bd28                HwAccDmaCh_GetParam
                0x0008bd48                HwAccDmaCh_LoadConfigIntoSoftwareTcd
                0x0008bef4                HwAccDmaCh_LoadSoftwareTcdIntoHardwareTcd
                0x0008bf4c                HwAccDmaCh_SetControl_ScatterGatherAddress
                0x0008bf54                HwAccDmaCh_SetControl_EnScatterGatherProcessing
 .mcal_text     0x0008bf6c      0x154 ./RTD/src/Dma_Ip_Irq.o
                0x0008bfa0                Dma0_Ch0_IRQHandler
                0x0008bfae                Dma0_Ch1_IRQHandler
                0x0008bfbc                Dma0_Ch2_IRQHandler
                0x0008bfca                Dma0_Ch3_IRQHandler
                0x0008bfd8                Dma0_Ch4_IRQHandler
                0x0008bfe6                Dma0_Ch5_IRQHandler
                0x0008bff4                Dma0_Ch6_IRQHandler
                0x0008c002                Dma0_Ch7_IRQHandler
                0x0008c010                Dma0_Ch8_IRQHandler
                0x0008c01e                Dma0_Ch9_IRQHandler
                0x0008c02c                Dma0_Ch10_IRQHandler
                0x0008c03a                Dma0_Ch11_IRQHandler
                0x0008c048                Dma0_Ch12_IRQHandler
                0x0008c056                Dma0_Ch13_IRQHandler
                0x0008c064                Dma0_Ch14_IRQHandler
                0x0008c072                Dma0_Ch15_IRQHandler
                0x0008c080                Dma0_Error_IrqHandler
 .mcal_text     0x0008c0c0       0x10 ./RTD/src/EcuM.o
                0x0008c0c0                EcuM_SetWakeupEvent
                0x0008c0cc                EcuM_ValidateWakeupEvent
                0x0008c0ce                EcuM_CheckWakeup
 .mcal_text     0x0008c0d0     0x1b74 ./RTD/src/FlexCAN_Ip.o
                0x0008c57c                FlexCAN_Ip_Init_Privileged
                0x0008c728                FlexCAN_Ip_Send
                0x0008c79c                FlexCAN_Ip_ConfigRxMb
                0x0008c830                FlexCAN_Ip_Receive
                0x0008c880                FlexCAN_Ip_ReceiveBlocking
                0x0008c968                FlexCAN_Ip_RxFifo
                0x0008c980                FlexCAN_Ip_RxFifoBlocking
                0x0008ca5c                FlexCAN_Ip_ConfigRxFifo_Privileged
                0x0008cac8                FlexCAN_Ip_ConfigRemoteResponseMb
                0x0008cb8c                FlexCAN_Ip_GetTransferStatus
                0x0008cbcc                FlexCAN_IRQHandler
                0x0008cdb8                FlexCAN_Ip_ClearErrorStatus
                0x0008cdd4                FlexCAN_Ip_GetErrorStatus
                0x0008cdf0                FlexCAN_Ip_GetControllerTxErrorCounter
                0x0008ce10                FlexCAN_Ip_GetControllerRxErrorCounter
                0x0008ce30                FlexCAN_Error_IRQHandler
                0x0008ceb8                FlexCAN_BusOff_IRQHandler
                0x0008cf60                FlexCAN_Ip_SendBlocking
                0x0008d05c                FlexCAN_Ip_SetRxMbGlobalMask_Privileged
                0x0008d0b0                FlexCAN_Ip_EnterFreezeMode_Privileged
                0x0008d0c0                FlexCAN_Ip_ExitFreezeMode_Privileged
                0x0008d0d0                FlexCAN_Ip_SetRxIndividualMask_Privileged
                0x0008d148                FlexCAN_Ip_SetRxFifoGlobalMask_Privileged
                0x0008d1a0                FlexCAN_Ip_Deinit_Privileged
                0x0008d218                FlexCAN_Ip_MainFunctionRead
                0x0008d284                FlexCAN_Ip_MainFunctionBusOff_Privileged
                0x0008d2c8                FlexCAN_Ip_MainFunctionWrite
                0x0008d360                FlexCAN_Ip_GetStopMode_Privileged
                0x0008d374                FlexCAN_Ip_GetStartMode_Privileged
                0x0008d38c                FlexCAN_Ip_SetStartMode_Privileged
                0x0008d3c0                FlexCAN_Ip_SetStopMode_Privileged
                0x0008d3f0                FlexCAN_Ip_SetRxMaskType_Privileged
                0x0008d45c                FlexCAN_Ip_SetBitrate_Privileged
                0x0008d4d8                FlexCAN_Ip_GetBitrate
                0x0008d554                FlexCAN_Ip_ClearTDCFail
                0x0008d588                FlexCAN_Ip_GetTDCFail
                0x0008d5ac                FlexCAN_Ip_GetTDCValue
                0x0008d5d0                FlexCAN_Ip_SetBitrateCbt_Privileged
                0x0008d684                FlexCAN_Ip_GetBitrateFD
                0x0008d6e0                FlexCAN_Ip_SetTDCOffset_Privileged
                0x0008d76c                FlexCAN_Ip_SetTxArbitrationStartDelay_Privileged
                0x0008d7d8                FlexCAN_Ip_GetBuffStatusFlag
                0x0008d800                FlexCAN_Ip_ClearBuffStatusFlag
                0x0008d824                FlexCAN_Ip_EnableInterrupts_Privileged
                0x0008d864                FlexCAN_Ip_DisableInterrupts_Privileged
                0x0008d8a0                FlexCAN_Ip_SetErrorInt_Privileged
                0x0008d93c                FlexCAN_Ip_AbortTransfer
                0x0008da98                FlexCAN_Ip_SetRxMb14Mask_Privileged
                0x0008daf0                FlexCAN_Ip_SetRxMb15Mask_Privileged
                0x0008db48                FlexCAN_Ip_SetListenOnlyMode_Privileged
                0x0008dbb8                FlexCAN_Ip_GetListenOnlyMode
                0x0008dbcc                FlexCAN_Ip_ManualBusOffRecovery
 .mcal_text     0x0008dc44      0xa0c ./RTD/src/FlexCAN_Ip_HwAccess.o
                0x0008dc44                FlexCAN_GetMaxMbNum
                0x0008dc68                FlexCAN_EnterFreezeMode
                0x0008dcc8                FlexCAN_Enable
                0x0008dd12                FlexCAN_ExitFreezeMode
                0x0008dd64                FlexCAN_Disable
                0x0008ddb4                FlexCAN_SetErrIntCmd
                0x0008de1c                FlexCAN_EnableRxFifo
                0x0008de6a                FlexCAN_IsFDAvailable
                0x0008de8c                FlexCAN_Init
                0x0008df40                FlexCAN_GetMsgBuffRegion
                0x0008df86                FlexCAN_SetPayloadSize
                0x0008dfb6                FlexCAN_GetMbPayloadSize
                0x0008dfd0                FlexCAN_LockRxMsgBuff
                0x0008dfda                FlexCAN_SetMsgBuffIntCmd
                0x0008e030                FLEXCAN_ClearMsgBuffIntCmd
                0x0008e06c                FlexCAN_DisableInterrupts
                0x0008e072                FlexCAN_EnableInterrupts
                0x0008e080                FlexCAN_SetRxMsgBuff
                0x0008e104                FlexCAN_GetMsgBuffTimestamp
                0x0008e110                FlexCAN_GetMsgBuff
                0x0008e1a8                FlexCAN_SetTxMsgBuff
                0x0008e2c0                FlexCAN_SetMaxMsgBuffNum
                0x0008e352                FlexCAN_SetOperationMode
                0x0008e390                FlexCAN_SetRxFifoFilter
                0x0008e53c                FlexCAN_ReadRxFifo
                0x0008e5a4                FlexCAN_IsMbOutOfRange
                0x0008e5c6                FlexCAN_ConfigCtrlOptions
                0x0008e642                FlexCAN_ResetImaskBuff
 .mcal_text     0x0008e650       0xc0 ./RTD/src/FlexCAN_Ip_Irq.o
                0x0008e650                CAN0_ORED_IRQHandler
                0x0008e65e                CAN0_Error_IRQHandler
                0x0008e66c                CAN0_ORED_0_15_MB_IRQHandler
                0x0008e67e                CAN0_ORED_16_31_MB_IRQHandler
                0x0008e690                CAN1_ORED_IRQHandler
                0x0008e69e                CAN1_Error_IRQHandler
                0x0008e6ac                CAN1_ORED_0_15_MB_IRQHandler
                0x0008e6be                CAN1_ORED_16_31_MB_IRQHandler
                0x0008e6d0                CAN2_ORED_IRQHandler
                0x0008e6de                CAN2_Error_IRQHandler
                0x0008e6ec                CAN2_ORED_0_15_MB_IRQHandler
                0x0008e6fe                CAN2_ORED_16_31_MB_IRQHandler
 .mcal_text     0x0008e710       0x4c ./RTD/src/Flexio_Mcl_Ip.o
                0x0008e710                Flexio_Mcl_Ip_InitDevice
                0x0008e740                Flexio_Mcl_Ip_DeinitDevice
 .mcal_text     0x0008e75c      0x164 ./RTD/src/Flexio_Mcl_Ip_HwAccess.o
                0x0008e75c                Flexio_Mcl_Ip_SetSoftwareReset
                0x0008e780                Flexio_Mcl_Ip_SetDebugEnable
                0x0008e7a6                Flexio_Mcl_Ip_SetEnable
                0x0008e7c2                Flexio_Mcl_Ip_GetShifterStatus
                0x0008e7ce                Flexio_Mcl_Ip_GetAllShifterStatus
                0x0008e7d2                Flexio_Mcl_Ip_ClearShifterStatus
                0x0008e7dc                Flexio_Mcl_Ip_GetShifterErrorStatus
                0x0008e7e8                Flexio_Mcl_Ip_GetAllShifterErrorStatus
                0x0008e7ec                Flexio_Mcl_Ip_ClearShifterErrorStatus
                0x0008e7f6                Flexio_Mcl_Ip_GetTimerStatus
                0x0008e802                Flexio_Mcl_Ip_GetTimerInterruptEnable
                0x0008e80e                Flexio_Mcl_Ip_GetAllTimerStatus
                0x0008e812                Flexio_Mcl_Ip_ClearTimerStatus
                0x0008e81c                Flexio_Mcl_Ip_GetAllShifterInterrupt
                0x0008e820                Flexio_Mcl_Ip_GetAllShifterErrorInterrupt
                0x0008e824                Flexio_Mcl_Ip_SetShifterErrorInterrupt
                0x0008e846                Flexio_Mcl_Ip_SetShifterInterrupt
                0x0008e868                Flexio_Mcl_Ip_SetShifterDMARequest
                0x0008e88a                Flexio_Mcl_Ip_GetAllTimerInterrupt
                0x0008e88e                Flexio_Mcl_Ip_SetTimerInterrupt
                0x0008e8b0                Flexio_Mcl_Ip_Init
 .mcal_text     0x0008e8c0       0x30 ./RTD/src/Flexio_Mcl_Ip_Irq.o
                0x0008e8c0                MCL_FLEXIO_ISR
 .mcal_text     0x0008e8f0       0x30 ./RTD/src/Flexio_Pwm_Ip_Irq.o
                0x0008e8f0                Flexio_Pwm_Ip_IrqHandler
 .mcal_text     0x0008e920      0x970 ./RTD/src/Fls.o
                0x0008ec94                Fls_Init
                0x0008edd8                Fls_Erase
                0x0008eec4                Fls_Write
                0x0008efc4                Fls_GetStatus
                0x0008efe0                Fls_GetJobResult
                0x0008f004                Fls_Read
                0x0008f09c                Fls_Compare
                0x0008f134                Fls_MainFunction
 .mcal_text     0x0008f290      0x308 ./RTD/src/Fls_IPW.o
                0x0008f290                Fls_IPW_Init
                0x0008f2c8                Fls_IPW_AbortSuspended
                0x0008f2ca                Fls_IPW_ClearHVJob
                0x0008f2cc                Fls_IPW_LLDMainFunction
                0x0008f3c8                Fls_IPW_SectorRead
                0x0008f410                Fls_IPW_SectorErase
                0x0008f4cc                Fls_IPW_SectorWrite
                0x0008f58c                Fls_IPW_GetBlockNumberFromAddress
 .mcal_text     0x0008f598      0x7c4 ./RTD/src/Ftfc_Fls_Ip.o
                0x0008f80c                Ftfc_Fls_Ip_Init
                0x0008f858                Ftfc_Fls_Ip_Abort
                0x0008f870                Ftfc_Fls_Ip_SectorErase
                0x0008f968                Ftfc_Fls_Ip_GetBlockNumberFromAddress
                0x0008f996                Ftfc_Fls_Ip_SetAsyncMode
                0x0008f9a0                Ftfc_Fls_Ip_Read
                0x0008fa64                Ftfc_Fls_Ip_Compare
                0x0008fb80                Ftfc_Fls_Ip_SectorEraseStatus
                0x0008fbc0                Ftfc_Fls_Ip_Write
                0x0008fd10                Ftfc_Fls_Ip_WriteStatus
 .mcal_text     0x0008fd5c      0x400 ./RTD/src/Ftm_Icu_Ip.o
                0x0008fd5c                Ftm_Icu_Ip_SetActivationCondition
                0x0008fda8                Ftm_Icu_Ip_Init
                0x0008ff8c                Ftm_Icu_Ip_EnableEdgeDetection
                0x0008ffec                Ftm_Icu_Ip_DisableEdgeDetection
                0x00090014                Ftm_Icu_Ip_EnableInterrupt
                0x00090034                Ftm_Icu_Ip_DisableInterrupt
                0x0009004c                Ftm_Icu_Ip_ResetEdgeCount
                0x00090068                Ftm_Icu_Ip_EnableEdgeCount
                0x000900d4                Ftm_Icu_Ip_DisableEdgeCount
                0x0009010c                Ftm_Icu_Ip_GetEdgeNumbers
                0x00090124                Ftm_Icu_Ip_EnableNotification
                0x00090140                Ftm_Icu_Ip_DisableNotification
 .mcal_text     0x0009015c     0x1718 ./RTD/src/Ftm_Pwm_Ip.o
                0x0009037c                Ftm_Pwm_Ip_SwOutputControl
                0x0009042c                Ftm_Pwm_Ip_DeInit
                0x00090534                Ftm_Pwm_Ip_UpdatePwmChannel
                0x000905b8                Ftm_Pwm_Ip_UpdatePwmDutyCycleChannel
                0x00090694                Ftm_Pwm_Ip_Init
                0x00091004                Ftm_Pwm_Ip_UpdatePwmPeriod
                0x00091050                Ftm_Pwm_Ip_UpdatePwmPeriodAndDuty
                0x000910e4                Ftm_Pwm_Ip_GetOutputState
                0x00091120                Ftm_Pwm_Ip_DisableNotification
                0x000911a4                Ftm_Pwm_Ip_EnableNotification
                0x0009137c                Ftm_Pwm_Ip_SetPowerState
                0x000913c0                Ftm_Pwm_Ip_SetClockMode
                0x00091400                Ftm_Pwm_Ip_ResetCounter
                0x00091434                Ftm_Pwm_Ip_GetChannelState
                0x00091460                Ftm_Pwm_Ip_FastUpdatePwmDuty
                0x000914cc                Ftm_Pwm_Ip_MaskOutputChannels
                0x00091504                Ftm_Pwm_Ip_UnMaskOutputChannels
                0x00091540                Ftm_Pwm_Ip_SetPhaseShift
                0x0009161c                Ftm_Pwm_Ip_SetDutyPhaseShift
                0x000916e8                Ftm_Pwm_Ip_DisableTrigger
                0x00091718                Ftm_Pwm_Ip_EnableTrigger
                0x00091744                Ftm_Pwm_Ip_SyncUpdate
                0x00091770                Ftm_Pwm_Ip_SetChannelDeadTime
 .mcal_text     0x00091874       0x4c ./RTD/src/Gpio_Dio_Ip.o
                0x00091874                Gpio_Dio_Ip_WritePin
                0x0009189a                Gpio_Dio_Ip_WritePins
                0x0009189e                Gpio_Dio_Ip_GetPinsOutput
                0x000918a2                Gpio_Dio_Ip_SetPins
                0x000918a6                Gpio_Dio_Ip_ClearPins
                0x000918aa                Gpio_Dio_Ip_TogglePins
                0x000918ae                Gpio_Dio_Ip_ReadPins
                0x000918b2                Gpio_Dio_Ip_ReadPin
 .mcal_text     0x000918c0      0x348 ./RTD/src/Gpt.o
                0x000918e0                Gpt_Init
                0x0009194c                Gpt_DeInit
                0x000919d4                Gpt_GetTimeElapsed
                0x00091a44                Gpt_StartTimer
                0x00091ab0                Gpt_StopTimer
                0x00091b34                Gpt_EnableNotification
                0x00091b68                Gpt_DisableNotification
                0x00091bb4                Gpt_ProcessCommonInterrupt
 .mcal_text     0x00091c08       0xd6 ./RTD/src/Gpt_Ipw.o
                0x00091c08                Gpt_Ipw_InitInstances
                0x00091c32                Gpt_Ipw_Init
                0x00091c42                Gpt_Ipw_StartTimer
                0x00091c5c                Gpt_Ipw_GetTimeElapsed
                0x00091ca0                Gpt_Ipw_StopTimer
                0x00091cb0                Gpt_Ipw_EnableInterrupt
                0x00091cc0                Gpt_Ipw_DeInit
                0x00091cce                Gpt_Ipw_DisableInterrupt
 *fill*         0x00091cde        0x2 
 .mcal_text     0x00091ce0      0x270 ./RTD/src/Icu.o
                0x00091d20                Icu_Init
                0x00091d6c                Icu_SetActivationCondition
                0x00091d98                Icu_DisableNotification
                0x00091dc0                Icu_EnableNotification
                0x00091de8                Icu_ResetEdgeCount
                0x00091e10                Icu_EnableEdgeCount
                0x00091e40                Icu_DisableEdgeCount
                0x00091e68                Icu_GetEdgeNumbers
                0x00091e84                Icu_EnableEdgeDetection
                0x00091eac                Icu_DisableEdgeDetection
                0x00091ed4                Icu_ReportWakeupAndOverflow
                0x00091f08                Icu_ReportEvents
                0x00091f48                Icu_LogicChStateCallback
 .mcal_text     0x00091f50      0x266 ./RTD/src/Icu_Ipw.o
                0x00091f50                Icu_Ipw_Init
                0x00091fa8                Icu_Ipw_SetActivationCondition
                0x0009201c                Icu_Ipw_ResetEdgeCount
                0x00092036                Icu_Ipw_EnableEdgeCount
                0x00092050                Icu_Ipw_DisableEdgeCount
                0x0009206a                Icu_Ipw_GetEdgeNumbers
                0x00092086                Icu_Ipw_EnableEdgeDetection
                0x000920e8                Icu_Ipw_DisableEdgeDetection
                0x0009214a                Icu_Ipw_EnableNotification
                0x00092180                Icu_Ipw_DisableNotification
 *fill*         0x000921b6        0x2 
 .mcal_text     0x000921b8      0x138 ./RTD/src/IntCtrl_Ip.o
                0x000921b8                IntCtrl_Ip_InstallHandlerPrivileged
                0x000921da                IntCtrl_Ip_EnableIrqPrivileged
                0x000921f4                IntCtrl_Ip_DisableIrqPrivileged
                0x00092210                IntCtrl_Ip_SetPriorityPrivileged
                0x00092222                IntCtrl_Ip_GetPriorityPrivileged
                0x00092232                IntCtrl_Ip_ClearPendingPrivileged
                0x0009224c                IntCtrl_Ip_Init
                0x00092294                IntCtrl_Ip_ConfigIrqRouting
                0x000922bc                IntCtrl_Ip_InstallHandler
                0x000922c0                IntCtrl_Ip_EnableIrq
                0x000922c4                IntCtrl_Ip_DisableIrq
                0x000922c8                IntCtrl_Ip_SetPriority
                0x000922da                IntCtrl_Ip_GetPriority
                0x000922ea                IntCtrl_Ip_ClearPending
 .mcal_text     0x000922f0      0x278 ./RTD/src/LPit_Gpt_Ip.o
                0x000922f0                Lpit_Gpt_Ip_GetInterruptFlagTimerChannels
                0x00092310                Lpit_Gpt_Ip_GetTimerInterruptEnable
                0x00092324                Lpit_Gpt_Ip_GetCurrentTimervalue
                0x00092330                Lpit_Gpt_Ip_GetTimerValue
                0x00092340                Lpit_Gpt_Ip_Init
                0x00092394                Lpit_Gpt_Ip_InitChannel
                0x0009242c                Lpit_Gpt_Ip_Deinit
                0x000924bc                Lpit_Gpt_Ip_StartTimer
                0x000924f8                Lpit_Gpt_Ip_StopTimer
                0x00092520                Lpit_Gpt_Ip_EnableChInterrupt
                0x00092544                Lpit_Gpt_Ip_DisableChInterrupt
 .mcal_text     0x00092568      0x1a4 ./RTD/src/Lpit_Icu_Ip.o
                0x00092568                Lpit_Icu_Ip_Init
                0x00092660                Lpit_Icu_Ip_EnableInterrupt
                0x0009267c                Lpit_Icu_Ip_DisableInterrupt
                0x00092694                Lpit_Icu_Ip_EnableEdgeDetection
                0x000926b8                Lpit_Icu_Ip_DisableDetectionMode
                0x000926dc                Lpit_Icu_Ip_EnableNotification
                0x000926f4                Lpit_Icu_Ip_DisableNotification
 .mcal_text     0x0009270c      0xb78 ./RTD/src/Lpspi_Ip.o
                0x00092a44                Lpspi_Ip_IrqTxDmaHandler
                0x00092b38                Lpspi_Ip_IrqRxDmaHandler
                0x00092bdc                Lpspi_Ip_DeInit
                0x00092c10                Lpspi_Ip_SyncTransmit
                0x00092ed4                Lpspi_Ip_AsyncTransmit
                0x00093098                Lpspi_Ip_ManageBuffers
                0x0009311c                Lpspi_Ip_UpdateFrameSize
                0x00093138                Lpspi_Ip_UpdateLsb
                0x00093154                Lpspi_Ip_UpdateDefaultTransmitData
                0x00093170                Lpspi_Ip_UpdateTransferMode
                0x00093188                Lpspi_Ip_Init
                0x000931e0                Lpspi_Ip_Cancel
                0x00093240                Lpspi_Ip_IrqHandler
                0x00093274                Lpspi_Ip_GetStatus
 .mcal_text     0x00093284       0x4e ./RTD/src/Lpspi_Ip_Irq.o
                0x00093284                Lpspi_Ip_LPSPI_0_IRQHandler
                0x00093292                Lpspi_Ip_LPSPI_0_IrqTxDmaHandler
                0x00093298                Lpspi_Ip_LPSPI_0_IrqRxDmaHandler
                0x0009329e                Lpspi_Ip_LPSPI_1_IRQHandler
                0x000932ac                Lpspi_Ip_LPSPI_1_IrqTxDmaHandler
                0x000932b2                Lpspi_Ip_LPSPI_1_IrqRxDmaHandler
                0x000932b8                Lpspi_Ip_LPSPI_2_IRQHandler
                0x000932c6                Lpspi_Ip_LPSPI_2_IrqTxDmaHandler
                0x000932cc                Lpspi_Ip_LPSPI_2_IrqRxDmaHandler
 *fill*         0x000932d2        0x2 
 .mcal_text     0x000932d4      0x19c ./RTD/src/Lptmr_Icu_Ip.o
                0x000932d4                Lptmr_Icu_Ip_SetActivationCondition
                0x000932ec                Lptmr_Icu_Ip_ResetEdgeCount
                0x00093304                Lptmr_Icu_Ip_EnableEdgeCount
                0x00093308                Lptmr_Icu_Ip_DisableEdgeCount
                0x0009331c                Lptmr_Icu_Ip_GetEdgeNumbers
                0x00093330                Lptmr_Icu_Ip_EnableInterrupt
                0x00093340                Lptmr_Icu_Ip_EnableEdgeDetection
                0x00093344                Lptmr_Icu_Ip_DisableInterrupt
                0x00093354                Lptmr_Icu_Ip_Init
                0x00093444                Lptmr_Icu_Ip_DisableDetection
                0x00093448                Lptmr_Icu_Ip_EnableNotification
                0x0009345c                Lptmr_Icu_Ip_DisableNotification
 .mcal_text     0x00093470      0x26c ./RTD/src/Mcu.o
                0x000934a0                Mcu_Init
                0x00093518                Mcu_InitRamSection
                0x00093530                Mcu_InitClock
                0x00093584                Mcu_SetMode
                0x000935d8                Mcu_DistributePllClock
                0x00093614                Mcu_GetPllStatus
                0x00093634                Mcu_GetResetReason
                0x00093654                Mcu_GetResetRawValue
                0x00093674                Mcu_PerformReset
                0x00093698                Mcu_GetClockFrequency
                0x000936bc                Mcu_SleepOnExit
 .mcal_text     0x000936dc       0x40 ./RTD/src/Mcu_Ipw.o
                0x000936dc                Mcu_Ipw_Init
                0x000936e0                Mcu_Ipw_InitClock
                0x000936e4                Mcu_Ipw_DistributePllClock
                0x000936e8                Mcu_Ipw_GetPllStatus
                0x000936fe                MCU_Ipw_GetClockFrequency
                0x00093702                Mcu_Ipw_SetMode
                0x00093706                Mcu_Ipw_PerformReset
                0x0009370a                Mcu_Ipw_GetResetReason
                0x0009370e                Mcu_Ipw_GetResetRawValue
                0x00093712                Mcu_Ipw_SleepOnExit
 .mcal_text     0x0009371c      0x2d4 ./RTD/src/Mpu_Ip.o
                0x0009371c                Mpu_Ip_SetRegionConfig_Privileged
                0x00093780                Mpu_Ip_Deinit_Privileged
                0x000937dc                Mpu_Ip_Init_Privileged
                0x00093824                Mpu_Ip_EnableRegion_Privileged
                0x0009385c                Mpu_Ip_SetAccessMode_Privileged
                0x00093936                Mpu_Ip_GetErrorDetails_Privileged
                0x000939d8                Mpu_Ip_Init
                0x000939dc                Mpu_Ip_SetRegionConfig
                0x000939e0                Mpu_Ip_Deinit
                0x000939e4                Mpu_Ip_EnableRegion
                0x000939e8                Mpu_Ip_SetAccessMode
                0x000939ec                Mpu_Ip_GetErrorDetails
 .mcal_text     0x000939f0       0x1e ./RTD/src/OsIf_Timer.o
                0x000939f0                OsIf_Init
                0x000939f8                OsIf_GetCounter
                0x000939fc                OsIf_GetElapsed
                0x00093a04                OsIf_SetTimerFrequency
                0x00093a06                OsIf_MicrosToTicks
 *fill*         0x00093a0e        0x2 
 .mcal_text     0x00093a10       0x4c ./RTD/src/OsIf_Timer_System_Internal_Systick.o
                0x00093a10                OsIf_Timer_System_Internal_Init
                0x00093a28                OsIf_Timer_System_Internal_GetCounter
                0x00093a38                OsIf_Timer_System_Internal_GetElapsed
 .mcal_text     0x00093a5c       0x50 ./RTD/src/Platform.o
                0x00093a5c                Platform_Init
                0x00093a78                Platform_SetIrq
                0x00093a8a                Platform_SetIrqPriority
                0x00093a94                Platform_GetIrqPriority
                0x00093aa2                Platform_InstallIrqHandler
 .mcal_text     0x00093aac       0x9e ./RTD/src/Platform_Ipw.o
                0x00093aac                Platform_Ipw_Init
                0x00093b12                Platform_Ipw_InitNonCore
 *fill*         0x00093b4a        0x2 
 .mcal_text     0x00093b4c       0xd8 ./RTD/src/Port.o
                0x00093b4c                Port_Init
                0x00093b7c                Port_SetPinDirection
                0x00093bac                Port_SetPinMode
                0x00093bd8                Port_RefreshPortDirection
                0x00093c04                Port_GetVersionInfo
 .mcal_text     0x00093c24      0x1a4 ./RTD/src/Port_Ci_Icu_Ip.o
                0x00093c24                Port_Ci_Icu_Ip_EnableInterrupt
                0x00093c88                Port_Ci_Icu_Ip_DisableInterrupt
                0x00093cb4                Port_Ci_Icu_Ip_SetActivationCondition
                0x00093d30                Port_Ci_Icu_Ip_Init
                0x00093d98                Port_Ci_Icu_Ip_EnableEdgeDetection
                0x00093d9c                Port_Ci_Icu_Ip_DisableDetection
                0x00093da0                Port_Ci_Icu_Ip_EnableNotification
                0x00093db4                Port_Ci_Icu_Ip_DisableNotification
 .mcal_text     0x00093dc8       0x8c ./RTD/src/Port_Ci_Icu_Ip_Irq.o
                0x00093dc8                PORT_CI_ICU_IP_E_EXT_IRQ_ISR
 .mcal_text     0x00093e54      0x2e4 ./RTD/src/Port_Ci_Port_Ip.o
                0x00093e54                Port_Ci_Port_Ip_ConfigureInterleave
                0x00093ee8                Port_Ci_Port_Ip_Init
                0x00094040                Port_Ci_Port_Ip_SetMuxModeSel
                0x0009408a                Port_Ci_Port_Ip_EnableDigitalFilter
                0x000940b8                Port_Ci_Port_Ip_DisableDigitalFilter
                0x000940e8                Port_Ci_Port_Ip_ConfigDigitalFilter
                0x00094110                Port_Ci_Port_Ip_SetGlobalPinControl
 .mcal_text     0x00094138      0x3f0 ./RTD/src/Port_Ipw.o
                0x00094138                Port_Ipw_Init
                0x000942b0                Port_Ipw_SetPinDirection
                0x0009437c                Port_Ipw_SetGpioDirChangeability
                0x000943b4                Port_Ipw_SetPinMode
                0x00094470                Port_Ipw_RefreshPortDirection
 .mcal_text     0x00094528       0x9c ./RTD/src/Power_Ip.o
                0x00094528                Power_Ip_SetMode
                0x00094578                Power_Ip_PerformReset
                0x0009457c                Power_Ip_GetResetReason
                0x00094594                Power_Ip_GetResetRawValue
                0x00094598                Power_Ip_Init
                0x000945b2                Power_Ip_DisableSleepOnExit
                0x000945b6                Power_Ip_EnableSleepOnExit
                0x000945ba                Power_Ip_InstallNotificationsCallback
 .mcal_text     0x000945c4       0x60 ./RTD/src/Power_Ip_CortexM4.o
                0x000945c4                Power_Ip_CM4_SystemReset
                0x000945e4                Power_Ip_CM4_DisableSleepOnExit
                0x000945f4                Power_Ip_CM4_EnableSleepOnExit
                0x00094604                Power_Ip_CM4_EnableDeepSleep
                0x00094614                Power_Ip_CM4_DisableDeepSleep
 .mcal_text     0x00094624       0x2c ./RTD/src/Power_Ip_PMC.o
                0x00094624                Power_Ip_PMC_PowerInit
 .mcal_text     0x00094650       0x4c ./RTD/src/Power_Ip_Private.o
                0x00094650                Power_Ip_ReportPowerErrors
                0x0009465c                Power_Ip_ReportPowerErrorsEmptyCallback
                0x0009465e                Power_Ip_StartTimeout
                0x0009467e                Power_Ip_TimeoutExpired
 .mcal_text     0x0009469c       0x9c ./RTD/src/Power_Ip_RCM.o
                0x0009469c                Power_Ip_RCM_ResetInit
                0x000946bc                Power_Ip_RCM_GetResetReason
                0x00094718                Power_Ip_RCM_GetResetRawValue
 .mcal_text     0x00094738      0x130 ./RTD/src/Power_Ip_SMC.o
                0x00094738                Power_Ip_SMC_AllowedModesConfig
                0x00094748                Power_Ip_SMC_ModeCheckEntry
                0x00094784                Power_Ip_SMC_ModeConfig
 .mcal_text     0x00094868      0x478 ./RTD/src/Pwm.o
                0x0009496c                Pwm_Init
                0x000949e0                Pwm_DeInit
                0x00094a58                Pwm_SetDutyCycle
                0x00094aa0                Pwm_SetPeriodAndDuty
                0x00094b04                Pwm_GetChannelState
                0x00094b30                Pwm_SyncUpdate
                0x00094b60                Pwm_SetPhaseShift
                0x00094bc8                Pwm_SetDutyPhaseShift
                0x00094c38                Pwm_MaskOutputs
                0x00094c8c                Pwm_UnMaskOutputs
 .mcal_text     0x00094ce0      0x200 ./RTD/src/Pwm_Ipw.o
                0x00094ce0                Pwm_Ipw_Init
                0x00094d00                Pwm_Ipw_InitInstance
                0x00094d12                Pwm_Ipw_DeInit
                0x00094d30                Pwm_Ipw_DeInitInstance
                0x00094d42                Pwm_Ipw_SetDutyCycle
                0x00094d84                Pwm_Ipw_SetPeriodAndDuty
                0x00094dc0                Pwm_Ipw_GetChannelState
                0x00094de0                Pwm_Ipw_MaskOutputs
                0x00094dee                Pwm_Ipw_UnMaskOutputs
                0x00094dfc                Pwm_Ipw_SetPhaseShift
                0x00094e22                Pwm_Ipw_SetDutyPhaseShift
                0x00094e68                Pwm_Ipw_SyncUpdate
                0x00094e6c                Pwm_Ipw_ValidateSetPhaseShift
                0x00094e8a                Pwm_Ipw_ValidateSetPhaseShiftParams
                0x00094e96                Pwm_Ipw_ValidateSetDutyPhaseShiftParams
                0x00094eb8                Pwm_Ipw_ValidateUpdateSynchronous
                0x00094ec2                Pwm_Ipw_ValidateModuleId
                0x00094ecc                Pwm_Ipw_GetMaxPeriodValue
 .mcal_text     0x00094ee0       0xe0 ./RTD/src/Ram_Ip.o
                0x00094ee0                Ram_Ip_InitRamSection
 .mcal_text     0x00094fc0      0x888 ./RTD/src/SchM_Can.o
                0x00094fc0                SchM_Enter_Can_CAN_EXCLUSIVE_AREA_00
                0x00094ff8                SchM_Exit_Can_CAN_EXCLUSIVE_AREA_00
                0x00095028                SchM_Enter_Can_CAN_EXCLUSIVE_AREA_01
                0x00095060                SchM_Exit_Can_CAN_EXCLUSIVE_AREA_01
                0x00095090                SchM_Enter_Can_CAN_EXCLUSIVE_AREA_02
                0x000950c8                SchM_Exit_Can_CAN_EXCLUSIVE_AREA_02
                0x000950f8                SchM_Enter_Can_CAN_EXCLUSIVE_AREA_03
                0x00095130                SchM_Exit_Can_CAN_EXCLUSIVE_AREA_03
                0x00095160                SchM_Enter_Can_CAN_EXCLUSIVE_AREA_04
                0x00095198                SchM_Exit_Can_CAN_EXCLUSIVE_AREA_04
                0x000951c8                SchM_Enter_Can_CAN_EXCLUSIVE_AREA_05
                0x00095200                SchM_Exit_Can_CAN_EXCLUSIVE_AREA_05
                0x00095230                SchM_Enter_Can_CAN_EXCLUSIVE_AREA_06
                0x00095268                SchM_Exit_Can_CAN_EXCLUSIVE_AREA_06
                0x00095298                SchM_Enter_Can_CAN_EXCLUSIVE_AREA_07
                0x000952d0                SchM_Exit_Can_CAN_EXCLUSIVE_AREA_07
                0x00095300                SchM_Enter_Can_CAN_EXCLUSIVE_AREA_08
                0x00095338                SchM_Exit_Can_CAN_EXCLUSIVE_AREA_08
                0x00095368                SchM_Enter_Can_CAN_EXCLUSIVE_AREA_09
                0x000953a0                SchM_Exit_Can_CAN_EXCLUSIVE_AREA_09
                0x000953d0                SchM_Enter_Can_CAN_EXCLUSIVE_AREA_10
                0x00095408                SchM_Exit_Can_CAN_EXCLUSIVE_AREA_10
                0x00095438                SchM_Enter_Can_CAN_EXCLUSIVE_AREA_11
                0x00095470                SchM_Exit_Can_CAN_EXCLUSIVE_AREA_11
                0x000954a0                SchM_Enter_Can_CAN_EXCLUSIVE_AREA_12
                0x000954d8                SchM_Exit_Can_CAN_EXCLUSIVE_AREA_12
                0x00095508                SchM_Enter_Can_CAN_EXCLUSIVE_AREA_13
                0x00095540                SchM_Exit_Can_CAN_EXCLUSIVE_AREA_13
                0x00095570                SchM_Enter_Can_CAN_EXCLUSIVE_AREA_14
                0x000955a8                SchM_Exit_Can_CAN_EXCLUSIVE_AREA_14
                0x000955d8                SchM_Enter_Can_CAN_EXCLUSIVE_AREA_15
                0x00095610                SchM_Exit_Can_CAN_EXCLUSIVE_AREA_15
                0x00095640                SchM_Enter_Can_CAN_EXCLUSIVE_AREA_16
                0x00095678                SchM_Exit_Can_CAN_EXCLUSIVE_AREA_16
                0x000956a8                SchM_Enter_Can_CAN_EXCLUSIVE_AREA_17
                0x000956e0                SchM_Exit_Can_CAN_EXCLUSIVE_AREA_17
                0x00095710                SchM_Enter_Can_CAN_EXCLUSIVE_AREA_18
                0x00095748                SchM_Exit_Can_CAN_EXCLUSIVE_AREA_18
                0x00095778                SchM_Enter_Can_CAN_EXCLUSIVE_AREA_19
                0x000957b0                SchM_Exit_Can_CAN_EXCLUSIVE_AREA_19
                0x000957e0                SchM_Enter_Can_CAN_EXCLUSIVE_AREA_20
                0x00095818                SchM_Exit_Can_CAN_EXCLUSIVE_AREA_20
 .mcal_text     0x00095848       0x68 ./RTD/src/SchM_Crc.o
                0x00095848                SchM_Enter_Crc_CRC_EXCLUSIVE_AREA_00
                0x00095880                SchM_Exit_Crc_CRC_EXCLUSIVE_AREA_00
 .mcal_text     0x000958b0      0x340 ./RTD/src/SchM_Crypto.o
                0x000958b0                SchM_Enter_Crypto_CRYPTO_EXCLUSIVE_AREA_00
                0x000958e8                SchM_Exit_Crypto_CRYPTO_EXCLUSIVE_AREA_00
                0x00095918                SchM_Enter_Crypto_CRYPTO_EXCLUSIVE_AREA_01
                0x00095950                SchM_Exit_Crypto_CRYPTO_EXCLUSIVE_AREA_01
                0x00095980                SchM_Enter_Crypto_CRYPTO_EXCLUSIVE_AREA_02
                0x000959b8                SchM_Exit_Crypto_CRYPTO_EXCLUSIVE_AREA_02
                0x000959e8                SchM_Enter_Crypto_CRYPTO_EXCLUSIVE_AREA_03
                0x00095a20                SchM_Exit_Crypto_CRYPTO_EXCLUSIVE_AREA_03
                0x00095a50                SchM_Enter_Crypto_CRYPTO_EXCLUSIVE_AREA_04
                0x00095a88                SchM_Exit_Crypto_CRYPTO_EXCLUSIVE_AREA_04
                0x00095ab8                SchM_Enter_Crypto_CRYPTO_EXCLUSIVE_AREA_10
                0x00095af0                SchM_Exit_Crypto_CRYPTO_EXCLUSIVE_AREA_10
                0x00095b20                SchM_Enter_Crypto_CRYPTO_EXCLUSIVE_AREA_11
                0x00095b58                SchM_Exit_Crypto_CRYPTO_EXCLUSIVE_AREA_11
                0x00095b88                SchM_Enter_Crypto_CRYPTO_EXCLUSIVE_AREA_12
                0x00095bc0                SchM_Exit_Crypto_CRYPTO_EXCLUSIVE_AREA_12
 .mcal_text     0x00095bf0       0xd0 ./RTD/src/SchM_Dio.o
                0x00095bf0                SchM_Enter_Dio_DIO_EXCLUSIVE_AREA_00
                0x00095c28                SchM_Exit_Dio_DIO_EXCLUSIVE_AREA_00
                0x00095c58                SchM_Enter_Dio_DIO_EXCLUSIVE_AREA_01
                0x00095c90                SchM_Exit_Dio_DIO_EXCLUSIVE_AREA_01
 .mcal_text     0x00095cc0      0x208 ./RTD/src/SchM_Fls.o
                0x00095cc0                SchM_Enter_Fls_FLS_EXCLUSIVE_AREA_10
                0x00095cf8                SchM_Exit_Fls_FLS_EXCLUSIVE_AREA_10
                0x00095d28                SchM_Enter_Fls_FLS_EXCLUSIVE_AREA_11
                0x00095d60                SchM_Exit_Fls_FLS_EXCLUSIVE_AREA_11
                0x00095d90                SchM_Enter_Fls_FLS_EXCLUSIVE_AREA_12
                0x00095dc8                SchM_Exit_Fls_FLS_EXCLUSIVE_AREA_12
                0x00095df8                SchM_Enter_Fls_FLS_EXCLUSIVE_AREA_13
                0x00095e30                SchM_Exit_Fls_FLS_EXCLUSIVE_AREA_13
                0x00095e60                SchM_Enter_Fls_FLS_EXCLUSIVE_AREA_14
                0x00095e98                SchM_Exit_Fls_FLS_EXCLUSIVE_AREA_14
 .mcal_text     0x00095ec8     0x13e8 ./RTD/src/SchM_Gpt.o
                0x00095ec8                SchM_Enter_Gpt_GPT_EXCLUSIVE_AREA_00
                0x00095f00                SchM_Exit_Gpt_GPT_EXCLUSIVE_AREA_00
                0x00095f30                SchM_Enter_Gpt_GPT_EXCLUSIVE_AREA_01
                0x00095f68                SchM_Exit_Gpt_GPT_EXCLUSIVE_AREA_01
                0x00095f98                SchM_Enter_Gpt_GPT_EXCLUSIVE_AREA_02
                0x00095fd0                SchM_Exit_Gpt_GPT_EXCLUSIVE_AREA_02
                0x00096000                SchM_Enter_Gpt_GPT_EXCLUSIVE_AREA_03
                0x00096038                SchM_Exit_Gpt_GPT_EXCLUSIVE_AREA_03
                0x00096068                SchM_Enter_Gpt_GPT_EXCLUSIVE_AREA_04
                0x000960a0                SchM_Exit_Gpt_GPT_EXCLUSIVE_AREA_04
                0x000960d0                SchM_Enter_Gpt_GPT_EXCLUSIVE_AREA_05
                0x00096108                SchM_Exit_Gpt_GPT_EXCLUSIVE_AREA_05
                0x00096138                SchM_Enter_Gpt_GPT_EXCLUSIVE_AREA_06
                0x00096170                SchM_Exit_Gpt_GPT_EXCLUSIVE_AREA_06
                0x000961a0                SchM_Enter_Gpt_GPT_EXCLUSIVE_AREA_07
                0x000961d8                SchM_Exit_Gpt_GPT_EXCLUSIVE_AREA_07
                0x00096208                SchM_Enter_Gpt_GPT_EXCLUSIVE_AREA_10
                0x00096240                SchM_Exit_Gpt_GPT_EXCLUSIVE_AREA_10
                0x00096270                SchM_Enter_Gpt_GPT_EXCLUSIVE_AREA_11
                0x000962a8                SchM_Exit_Gpt_GPT_EXCLUSIVE_AREA_11
                0x000962d8                SchM_Enter_Gpt_GPT_EXCLUSIVE_AREA_12
                0x00096310                SchM_Exit_Gpt_GPT_EXCLUSIVE_AREA_12
                0x00096340                SchM_Enter_Gpt_GPT_EXCLUSIVE_AREA_17
                0x00096378                SchM_Exit_Gpt_GPT_EXCLUSIVE_AREA_17
                0x000963a8                SchM_Enter_Gpt_GPT_EXCLUSIVE_AREA_21
                0x000963e0                SchM_Exit_Gpt_GPT_EXCLUSIVE_AREA_21
                0x00096410                SchM_Enter_Gpt_GPT_EXCLUSIVE_AREA_22
                0x00096448                SchM_Exit_Gpt_GPT_EXCLUSIVE_AREA_22
                0x00096478                SchM_Enter_Gpt_GPT_EXCLUSIVE_AREA_23
                0x000964b0                SchM_Exit_Gpt_GPT_EXCLUSIVE_AREA_23
                0x000964e0                SchM_Enter_Gpt_GPT_EXCLUSIVE_AREA_24
                0x00096518                SchM_Exit_Gpt_GPT_EXCLUSIVE_AREA_24
                0x00096548                SchM_Enter_Gpt_GPT_EXCLUSIVE_AREA_25
                0x00096580                SchM_Exit_Gpt_GPT_EXCLUSIVE_AREA_25
                0x000965b0                SchM_Enter_Gpt_GPT_EXCLUSIVE_AREA_26
                0x000965e8                SchM_Exit_Gpt_GPT_EXCLUSIVE_AREA_26
                0x00096618                SchM_Enter_Gpt_GPT_EXCLUSIVE_AREA_27
                0x00096650                SchM_Exit_Gpt_GPT_EXCLUSIVE_AREA_27
                0x00096680                SchM_Enter_Gpt_GPT_EXCLUSIVE_AREA_28
                0x000966b8                SchM_Exit_Gpt_GPT_EXCLUSIVE_AREA_28
                0x000966e8                SchM_Enter_Gpt_GPT_EXCLUSIVE_AREA_29
                0x00096720                SchM_Exit_Gpt_GPT_EXCLUSIVE_AREA_29
                0x00096750                SchM_Enter_Gpt_GPT_EXCLUSIVE_AREA_30
                0x00096788                SchM_Exit_Gpt_GPT_EXCLUSIVE_AREA_30
                0x000967b8                SchM_Enter_Gpt_GPT_EXCLUSIVE_AREA_31
                0x000967f0                SchM_Exit_Gpt_GPT_EXCLUSIVE_AREA_31
                0x00096820                SchM_Enter_Gpt_GPT_EXCLUSIVE_AREA_35
                0x00096858                SchM_Exit_Gpt_GPT_EXCLUSIVE_AREA_35
                0x00096888                SchM_Enter_Gpt_GPT_EXCLUSIVE_AREA_36
                0x000968c0                SchM_Exit_Gpt_GPT_EXCLUSIVE_AREA_36
                0x000968f0                SchM_Enter_Gpt_GPT_EXCLUSIVE_AREA_38
                0x00096928                SchM_Exit_Gpt_GPT_EXCLUSIVE_AREA_38
                0x00096958                SchM_Enter_Gpt_GPT_EXCLUSIVE_AREA_39
                0x00096990                SchM_Exit_Gpt_GPT_EXCLUSIVE_AREA_39
                0x000969c0                SchM_Enter_Gpt_GPT_EXCLUSIVE_AREA_40
                0x000969f8                SchM_Exit_Gpt_GPT_EXCLUSIVE_AREA_40
                0x00096a28                SchM_Enter_Gpt_GPT_EXCLUSIVE_AREA_41
                0x00096a60                SchM_Exit_Gpt_GPT_EXCLUSIVE_AREA_41
                0x00096a90                SchM_Enter_Gpt_GPT_EXCLUSIVE_AREA_42
                0x00096ac8                SchM_Exit_Gpt_GPT_EXCLUSIVE_AREA_42
                0x00096af8                SchM_Enter_Gpt_GPT_EXCLUSIVE_AREA_43
                0x00096b30                SchM_Exit_Gpt_GPT_EXCLUSIVE_AREA_43
                0x00096b60                SchM_Enter_Gpt_GPT_EXCLUSIVE_AREA_44
                0x00096b98                SchM_Exit_Gpt_GPT_EXCLUSIVE_AREA_44
                0x00096bc8                SchM_Enter_Gpt_GPT_EXCLUSIVE_AREA_45
                0x00096c00                SchM_Exit_Gpt_GPT_EXCLUSIVE_AREA_45
                0x00096c30                SchM_Enter_Gpt_GPT_EXCLUSIVE_AREA_46
                0x00096c68                SchM_Exit_Gpt_GPT_EXCLUSIVE_AREA_46
                0x00096c98                SchM_Enter_Gpt_GPT_EXCLUSIVE_AREA_50
                0x00096cd0                SchM_Exit_Gpt_GPT_EXCLUSIVE_AREA_50
                0x00096d00                SchM_Enter_Gpt_GPT_EXCLUSIVE_AREA_51
                0x00096d38                SchM_Exit_Gpt_GPT_EXCLUSIVE_AREA_51
                0x00096d68                SchM_Enter_Gpt_GPT_EXCLUSIVE_AREA_52
                0x00096da0                SchM_Exit_Gpt_GPT_EXCLUSIVE_AREA_52
                0x00096dd0                SchM_Enter_Gpt_GPT_EXCLUSIVE_AREA_53
                0x00096e08                SchM_Exit_Gpt_GPT_EXCLUSIVE_AREA_53
                0x00096e38                SchM_Enter_Gpt_GPT_EXCLUSIVE_AREA_54
                0x00096e70                SchM_Exit_Gpt_GPT_EXCLUSIVE_AREA_54
                0x00096ea0                SchM_Enter_Gpt_GPT_EXCLUSIVE_AREA_55
                0x00096ed8                SchM_Exit_Gpt_GPT_EXCLUSIVE_AREA_55
                0x00096f08                SchM_Enter_Gpt_GPT_EXCLUSIVE_AREA_56
                0x00096f40                SchM_Exit_Gpt_GPT_EXCLUSIVE_AREA_56
                0x00096f70                SchM_Enter_Gpt_GPT_EXCLUSIVE_AREA_60
                0x00096fa8                SchM_Exit_Gpt_GPT_EXCLUSIVE_AREA_60
                0x00096fd8                SchM_Enter_Gpt_GPT_EXCLUSIVE_AREA_61
                0x00097010                SchM_Exit_Gpt_GPT_EXCLUSIVE_AREA_61
                0x00097040                SchM_Enter_Gpt_GPT_EXCLUSIVE_AREA_62
                0x00097078                SchM_Exit_Gpt_GPT_EXCLUSIVE_AREA_62
                0x000970a8                SchM_Enter_Gpt_GPT_EXCLUSIVE_AREA_63
                0x000970e0                SchM_Exit_Gpt_GPT_EXCLUSIVE_AREA_63
                0x00097110                SchM_Enter_Gpt_GPT_EXCLUSIVE_AREA_64
                0x00097148                SchM_Exit_Gpt_GPT_EXCLUSIVE_AREA_64
                0x00097178                SchM_Enter_Gpt_GPT_EXCLUSIVE_AREA_65
                0x000971b0                SchM_Exit_Gpt_GPT_EXCLUSIVE_AREA_65
                0x000971e0                SchM_Enter_Gpt_GPT_EXCLUSIVE_AREA_66
                0x00097218                SchM_Exit_Gpt_GPT_EXCLUSIVE_AREA_66
                0x00097248                SchM_Enter_Gpt_GPT_EXCLUSIVE_AREA_67
                0x00097280                SchM_Exit_Gpt_GPT_EXCLUSIVE_AREA_67
 .mcal_text     0x000972b0     0x1178 ./RTD/src/SchM_Icu.o
                0x000972b0                SchM_Enter_Icu_ICU_EXCLUSIVE_AREA_00
                0x000972e8                SchM_Exit_Icu_ICU_EXCLUSIVE_AREA_00
                0x00097318                SchM_Enter_Icu_ICU_EXCLUSIVE_AREA_01
                0x00097350                SchM_Exit_Icu_ICU_EXCLUSIVE_AREA_01
                0x00097380                SchM_Enter_Icu_ICU_EXCLUSIVE_AREA_02
                0x000973b8                SchM_Exit_Icu_ICU_EXCLUSIVE_AREA_02
                0x000973e8                SchM_Enter_Icu_ICU_EXCLUSIVE_AREA_03
                0x00097420                SchM_Exit_Icu_ICU_EXCLUSIVE_AREA_03
                0x00097450                SchM_Enter_Icu_ICU_EXCLUSIVE_AREA_04
                0x00097488                SchM_Exit_Icu_ICU_EXCLUSIVE_AREA_04
                0x000974b8                SchM_Enter_Icu_ICU_EXCLUSIVE_AREA_05
                0x000974f0                SchM_Exit_Icu_ICU_EXCLUSIVE_AREA_05
                0x00097520                SchM_Enter_Icu_ICU_EXCLUSIVE_AREA_06
                0x00097558                SchM_Exit_Icu_ICU_EXCLUSIVE_AREA_06
                0x00097588                SchM_Enter_Icu_ICU_EXCLUSIVE_AREA_07
                0x000975c0                SchM_Exit_Icu_ICU_EXCLUSIVE_AREA_07
                0x000975f0                SchM_Enter_Icu_ICU_EXCLUSIVE_AREA_08
                0x00097628                SchM_Exit_Icu_ICU_EXCLUSIVE_AREA_08
                0x00097658                SchM_Enter_Icu_ICU_EXCLUSIVE_AREA_09
                0x00097690                SchM_Exit_Icu_ICU_EXCLUSIVE_AREA_09
                0x000976c0                SchM_Enter_Icu_ICU_EXCLUSIVE_AREA_11
                0x000976f8                SchM_Exit_Icu_ICU_EXCLUSIVE_AREA_11
                0x00097728                SchM_Enter_Icu_ICU_EXCLUSIVE_AREA_15
                0x00097760                SchM_Exit_Icu_ICU_EXCLUSIVE_AREA_15
                0x00097790                SchM_Enter_Icu_ICU_EXCLUSIVE_AREA_16
                0x000977c8                SchM_Exit_Icu_ICU_EXCLUSIVE_AREA_16
                0x000977f8                SchM_Enter_Icu_ICU_EXCLUSIVE_AREA_17
                0x00097830                SchM_Exit_Icu_ICU_EXCLUSIVE_AREA_17
                0x00097860                SchM_Enter_Icu_ICU_EXCLUSIVE_AREA_18
                0x00097898                SchM_Exit_Icu_ICU_EXCLUSIVE_AREA_18
                0x000978c8                SchM_Enter_Icu_ICU_EXCLUSIVE_AREA_19
                0x00097900                SchM_Exit_Icu_ICU_EXCLUSIVE_AREA_19
                0x00097930                SchM_Enter_Icu_ICU_EXCLUSIVE_AREA_20
                0x00097968                SchM_Exit_Icu_ICU_EXCLUSIVE_AREA_20
                0x00097998                SchM_Enter_Icu_ICU_EXCLUSIVE_AREA_21
                0x000979d0                SchM_Exit_Icu_ICU_EXCLUSIVE_AREA_21
                0x00097a00                SchM_Enter_Icu_ICU_EXCLUSIVE_AREA_22
                0x00097a38                SchM_Exit_Icu_ICU_EXCLUSIVE_AREA_22
                0x00097a68                SchM_Enter_Icu_ICU_EXCLUSIVE_AREA_23
                0x00097aa0                SchM_Exit_Icu_ICU_EXCLUSIVE_AREA_23
                0x00097ad0                SchM_Enter_Icu_ICU_EXCLUSIVE_AREA_24
                0x00097b08                SchM_Exit_Icu_ICU_EXCLUSIVE_AREA_24
                0x00097b38                SchM_Enter_Icu_ICU_EXCLUSIVE_AREA_25
                0x00097b70                SchM_Exit_Icu_ICU_EXCLUSIVE_AREA_25
                0x00097ba0                SchM_Enter_Icu_ICU_EXCLUSIVE_AREA_26
                0x00097bd8                SchM_Exit_Icu_ICU_EXCLUSIVE_AREA_26
                0x00097c08                SchM_Enter_Icu_ICU_EXCLUSIVE_AREA_27
                0x00097c40                SchM_Exit_Icu_ICU_EXCLUSIVE_AREA_27
                0x00097c70                SchM_Enter_Icu_ICU_EXCLUSIVE_AREA_28
                0x00097ca8                SchM_Exit_Icu_ICU_EXCLUSIVE_AREA_28
                0x00097cd8                SchM_Enter_Icu_ICU_EXCLUSIVE_AREA_29
                0x00097d10                SchM_Exit_Icu_ICU_EXCLUSIVE_AREA_29
                0x00097d40                SchM_Enter_Icu_ICU_EXCLUSIVE_AREA_30
                0x00097d78                SchM_Exit_Icu_ICU_EXCLUSIVE_AREA_30
                0x00097da8                SchM_Enter_Icu_ICU_EXCLUSIVE_AREA_31
                0x00097de0                SchM_Exit_Icu_ICU_EXCLUSIVE_AREA_31
                0x00097e10                SchM_Enter_Icu_ICU_EXCLUSIVE_AREA_32
                0x00097e48                SchM_Exit_Icu_ICU_EXCLUSIVE_AREA_32
                0x00097e78                SchM_Enter_Icu_ICU_EXCLUSIVE_AREA_33
                0x00097eb0                SchM_Exit_Icu_ICU_EXCLUSIVE_AREA_33
                0x00097ee0                SchM_Enter_Icu_ICU_EXCLUSIVE_AREA_44
                0x00097f18                SchM_Exit_Icu_ICU_EXCLUSIVE_AREA_44
                0x00097f48                SchM_Enter_Icu_ICU_EXCLUSIVE_AREA_45
                0x00097f80                SchM_Exit_Icu_ICU_EXCLUSIVE_AREA_45
                0x00097fb0                SchM_Enter_Icu_ICU_EXCLUSIVE_AREA_46
                0x00097fe8                SchM_Exit_Icu_ICU_EXCLUSIVE_AREA_46
                0x00098018                SchM_Enter_Icu_ICU_EXCLUSIVE_AREA_47
                0x00098050                SchM_Exit_Icu_ICU_EXCLUSIVE_AREA_47
                0x00098080                SchM_Enter_Icu_ICU_EXCLUSIVE_AREA_48
                0x000980b8                SchM_Exit_Icu_ICU_EXCLUSIVE_AREA_48
                0x000980e8                SchM_Enter_Icu_ICU_EXCLUSIVE_AREA_49
                0x00098120                SchM_Exit_Icu_ICU_EXCLUSIVE_AREA_49
                0x00098150                SchM_Enter_Icu_ICU_EXCLUSIVE_AREA_50
                0x00098188                SchM_Exit_Icu_ICU_EXCLUSIVE_AREA_50
                0x000981b8                SchM_Enter_Icu_ICU_EXCLUSIVE_AREA_51
                0x000981f0                SchM_Exit_Icu_ICU_EXCLUSIVE_AREA_51
                0x00098220                SchM_Enter_Icu_ICU_EXCLUSIVE_AREA_52
                0x00098258                SchM_Exit_Icu_ICU_EXCLUSIVE_AREA_52
                0x00098288                SchM_Enter_Icu_ICU_EXCLUSIVE_AREA_53
                0x000982c0                SchM_Exit_Icu_ICU_EXCLUSIVE_AREA_53
                0x000982f0                SchM_Enter_Icu_ICU_EXCLUSIVE_AREA_57
                0x00098328                SchM_Exit_Icu_ICU_EXCLUSIVE_AREA_57
                0x00098358                SchM_Enter_Icu_ICU_EXCLUSIVE_AREA_58
                0x00098390                SchM_Exit_Icu_ICU_EXCLUSIVE_AREA_58
                0x000983c0                SchM_Enter_Icu_ICU_EXCLUSIVE_AREA_59
                0x000983f8                SchM_Exit_Icu_ICU_EXCLUSIVE_AREA_59
 .mcal_text     0x00098428     0x1318 ./RTD/src/SchM_Mcl.o
                0x00098428                SchM_Enter_Mcl_MCL_EXCLUSIVE_AREA_00
                0x00098460                SchM_Exit_Mcl_MCL_EXCLUSIVE_AREA_00
                0x00098490                SchM_Enter_Mcl_MCL_EXCLUSIVE_AREA_01
                0x000984c8                SchM_Exit_Mcl_MCL_EXCLUSIVE_AREA_01
                0x000984f8                SchM_Enter_Mcl_MCL_EXCLUSIVE_AREA_02
                0x00098530                SchM_Exit_Mcl_MCL_EXCLUSIVE_AREA_02
                0x00098560                SchM_Enter_Mcl_MCL_EXCLUSIVE_AREA_03
                0x00098598                SchM_Exit_Mcl_MCL_EXCLUSIVE_AREA_03
                0x000985c8                SchM_Enter_Mcl_MCL_EXCLUSIVE_AREA_04
                0x00098600                SchM_Exit_Mcl_MCL_EXCLUSIVE_AREA_04
                0x00098630                SchM_Enter_Mcl_MCL_EXCLUSIVE_AREA_05
                0x00098668                SchM_Exit_Mcl_MCL_EXCLUSIVE_AREA_05
                0x00098698                SchM_Enter_Mcl_MCL_EXCLUSIVE_AREA_06
                0x000986d0                SchM_Exit_Mcl_MCL_EXCLUSIVE_AREA_06
                0x00098700                SchM_Enter_Mcl_MCL_EXCLUSIVE_AREA_07
                0x00098738                SchM_Exit_Mcl_MCL_EXCLUSIVE_AREA_07
                0x00098768                SchM_Enter_Mcl_MCL_EXCLUSIVE_AREA_08
                0x000987a0                SchM_Exit_Mcl_MCL_EXCLUSIVE_AREA_08
                0x000987d0                SchM_Enter_Mcl_MCL_EXCLUSIVE_AREA_09
                0x00098808                SchM_Exit_Mcl_MCL_EXCLUSIVE_AREA_09
                0x00098838                SchM_Enter_Mcl_MCL_EXCLUSIVE_AREA_10
                0x00098870                SchM_Exit_Mcl_MCL_EXCLUSIVE_AREA_10
                0x000988a0                SchM_Enter_Mcl_MCL_EXCLUSIVE_AREA_11
                0x000988d8                SchM_Exit_Mcl_MCL_EXCLUSIVE_AREA_11
                0x00098908                SchM_Enter_Mcl_MCL_EXCLUSIVE_AREA_12
                0x00098940                SchM_Exit_Mcl_MCL_EXCLUSIVE_AREA_12
                0x00098970                SchM_Enter_Mcl_MCL_EXCLUSIVE_AREA_13
                0x000989a8                SchM_Exit_Mcl_MCL_EXCLUSIVE_AREA_13
                0x000989d8                SchM_Enter_Mcl_MCL_EXCLUSIVE_AREA_14
                0x00098a10                SchM_Exit_Mcl_MCL_EXCLUSIVE_AREA_14
                0x00098a40                SchM_Enter_Mcl_MCL_EXCLUSIVE_AREA_15
                0x00098a78                SchM_Exit_Mcl_MCL_EXCLUSIVE_AREA_15
                0x00098aa8                SchM_Enter_Mcl_MCL_EXCLUSIVE_AREA_16
                0x00098ae0                SchM_Exit_Mcl_MCL_EXCLUSIVE_AREA_16
                0x00098b10                SchM_Enter_Mcl_MCL_EXCLUSIVE_AREA_17
                0x00098b48                SchM_Exit_Mcl_MCL_EXCLUSIVE_AREA_17
                0x00098b78                SchM_Enter_Mcl_MCL_EXCLUSIVE_AREA_18
                0x00098bb0                SchM_Exit_Mcl_MCL_EXCLUSIVE_AREA_18
                0x00098be0                SchM_Enter_Mcl_MCL_EXCLUSIVE_AREA_19
                0x00098c18                SchM_Exit_Mcl_MCL_EXCLUSIVE_AREA_19
                0x00098c48                SchM_Enter_Mcl_MCL_EXCLUSIVE_AREA_20
                0x00098c80                SchM_Exit_Mcl_MCL_EXCLUSIVE_AREA_20
                0x00098cb0                SchM_Enter_Mcl_MCL_EXCLUSIVE_AREA_21
                0x00098ce8                SchM_Exit_Mcl_MCL_EXCLUSIVE_AREA_21
                0x00098d18                SchM_Enter_Mcl_MCL_EXCLUSIVE_AREA_22
                0x00098d50                SchM_Exit_Mcl_MCL_EXCLUSIVE_AREA_22
                0x00098d80                SchM_Enter_Mcl_MCL_EXCLUSIVE_AREA_23
                0x00098db8                SchM_Exit_Mcl_MCL_EXCLUSIVE_AREA_23
                0x00098de8                SchM_Enter_Mcl_MCL_EXCLUSIVE_AREA_24
                0x00098e20                SchM_Exit_Mcl_MCL_EXCLUSIVE_AREA_24
                0x00098e50                SchM_Enter_Mcl_MCL_EXCLUSIVE_AREA_25
                0x00098e88                SchM_Exit_Mcl_MCL_EXCLUSIVE_AREA_25
                0x00098eb8                SchM_Enter_Mcl_MCL_EXCLUSIVE_AREA_26
                0x00098ef0                SchM_Exit_Mcl_MCL_EXCLUSIVE_AREA_26
                0x00098f20                SchM_Enter_Mcl_MCL_EXCLUSIVE_AREA_27
                0x00098f58                SchM_Exit_Mcl_MCL_EXCLUSIVE_AREA_27
                0x00098f88                SchM_Enter_Mcl_MCL_EXCLUSIVE_AREA_28
                0x00098fc0                SchM_Exit_Mcl_MCL_EXCLUSIVE_AREA_28
                0x00098ff0                SchM_Enter_Mcl_MCL_EXCLUSIVE_AREA_29
                0x00099028                SchM_Exit_Mcl_MCL_EXCLUSIVE_AREA_29
                0x00099058                SchM_Enter_Mcl_MCL_EXCLUSIVE_AREA_30
                0x00099090                SchM_Exit_Mcl_MCL_EXCLUSIVE_AREA_30
                0x000990c0                SchM_Enter_Mcl_MCL_EXCLUSIVE_AREA_31
                0x000990f8                SchM_Exit_Mcl_MCL_EXCLUSIVE_AREA_31
                0x00099128                SchM_Enter_Mcl_MCL_EXCLUSIVE_AREA_32
                0x00099160                SchM_Exit_Mcl_MCL_EXCLUSIVE_AREA_32
                0x00099190                SchM_Enter_Mcl_MCL_EXCLUSIVE_AREA_33
                0x000991c8                SchM_Exit_Mcl_MCL_EXCLUSIVE_AREA_33
                0x000991f8                SchM_Enter_Mcl_MCL_EXCLUSIVE_AREA_34
                0x00099230                SchM_Exit_Mcl_MCL_EXCLUSIVE_AREA_34
                0x00099260                SchM_Enter_Mcl_MCL_EXCLUSIVE_AREA_35
                0x00099298                SchM_Exit_Mcl_MCL_EXCLUSIVE_AREA_35
                0x000992c8                SchM_Enter_Mcl_MCL_EXCLUSIVE_AREA_36
                0x00099300                SchM_Exit_Mcl_MCL_EXCLUSIVE_AREA_36
                0x00099330                SchM_Enter_Mcl_MCL_EXCLUSIVE_AREA_37
                0x00099368                SchM_Exit_Mcl_MCL_EXCLUSIVE_AREA_37
                0x00099398                SchM_Enter_Mcl_MCL_EXCLUSIVE_AREA_38
                0x000993d0                SchM_Exit_Mcl_MCL_EXCLUSIVE_AREA_38
                0x00099400                SchM_Enter_Mcl_MCL_EXCLUSIVE_AREA_39
                0x00099438                SchM_Exit_Mcl_MCL_EXCLUSIVE_AREA_39
                0x00099468                SchM_Enter_Mcl_MCL_EXCLUSIVE_AREA_40
                0x000994a0                SchM_Exit_Mcl_MCL_EXCLUSIVE_AREA_40
                0x000994d0                SchM_Enter_Mcl_MCL_EXCLUSIVE_AREA_41
                0x00099508                SchM_Exit_Mcl_MCL_EXCLUSIVE_AREA_41
                0x00099538                SchM_Enter_Mcl_MCL_EXCLUSIVE_AREA_42
                0x00099570                SchM_Exit_Mcl_MCL_EXCLUSIVE_AREA_42
                0x000995a0                SchM_Enter_Mcl_MCL_EXCLUSIVE_AREA_43
                0x000995d8                SchM_Exit_Mcl_MCL_EXCLUSIVE_AREA_43
                0x00099608                SchM_Enter_Mcl_MCL_EXCLUSIVE_AREA_44
                0x00099640                SchM_Exit_Mcl_MCL_EXCLUSIVE_AREA_44
                0x00099670                SchM_Enter_Mcl_MCL_EXCLUSIVE_AREA_45
                0x000996a8                SchM_Exit_Mcl_MCL_EXCLUSIVE_AREA_45
                0x000996d8                SchM_Enter_Mcl_MCL_EXCLUSIVE_AREA_46
                0x00099710                SchM_Exit_Mcl_MCL_EXCLUSIVE_AREA_46
 .mcal_text     0x00099740      0x138 ./RTD/src/SchM_Mcu.o
                0x00099740                SchM_Enter_Mcu_MCU_EXCLUSIVE_AREA_00
                0x00099778                SchM_Exit_Mcu_MCU_EXCLUSIVE_AREA_00
                0x000997a8                SchM_Enter_Mcu_MCU_EXCLUSIVE_AREA_01
                0x000997e0                SchM_Exit_Mcu_MCU_EXCLUSIVE_AREA_01
                0x00099810                SchM_Enter_Mcu_MCU_EXCLUSIVE_AREA_02
                0x00099848                SchM_Exit_Mcu_MCU_EXCLUSIVE_AREA_02
 .mcal_text     0x00099878      0xb60 ./RTD/src/SchM_Port.o
                0x00099878                SchM_Enter_Port_PORT_EXCLUSIVE_AREA_00
                0x000998b0                SchM_Exit_Port_PORT_EXCLUSIVE_AREA_00
                0x000998e0                SchM_Enter_Port_PORT_EXCLUSIVE_AREA_01
                0x00099918                SchM_Exit_Port_PORT_EXCLUSIVE_AREA_01
                0x00099948                SchM_Enter_Port_PORT_EXCLUSIVE_AREA_02
                0x00099980                SchM_Exit_Port_PORT_EXCLUSIVE_AREA_02
                0x000999b0                SchM_Enter_Port_PORT_EXCLUSIVE_AREA_03
                0x000999e8                SchM_Exit_Port_PORT_EXCLUSIVE_AREA_03
                0x00099a18                SchM_Enter_Port_PORT_EXCLUSIVE_AREA_04
                0x00099a50                SchM_Exit_Port_PORT_EXCLUSIVE_AREA_04
                0x00099a80                SchM_Enter_Port_PORT_EXCLUSIVE_AREA_05
                0x00099ab8                SchM_Exit_Port_PORT_EXCLUSIVE_AREA_05
                0x00099ae8                SchM_Enter_Port_PORT_EXCLUSIVE_AREA_06
                0x00099b20                SchM_Exit_Port_PORT_EXCLUSIVE_AREA_06
                0x00099b50                SchM_Enter_Port_PORT_EXCLUSIVE_AREA_07
                0x00099b88                SchM_Exit_Port_PORT_EXCLUSIVE_AREA_07
                0x00099bb8                SchM_Enter_Port_PORT_EXCLUSIVE_AREA_08
                0x00099bf0                SchM_Exit_Port_PORT_EXCLUSIVE_AREA_08
                0x00099c20                SchM_Enter_Port_PORT_EXCLUSIVE_AREA_09
                0x00099c58                SchM_Exit_Port_PORT_EXCLUSIVE_AREA_09
                0x00099c88                SchM_Enter_Port_PORT_EXCLUSIVE_AREA_10
                0x00099cc0                SchM_Exit_Port_PORT_EXCLUSIVE_AREA_10
                0x00099cf0                SchM_Enter_Port_PORT_EXCLUSIVE_AREA_11
                0x00099d28                SchM_Exit_Port_PORT_EXCLUSIVE_AREA_11
                0x00099d58                SchM_Enter_Port_PORT_EXCLUSIVE_AREA_12
                0x00099d90                SchM_Exit_Port_PORT_EXCLUSIVE_AREA_12
                0x00099dc0                SchM_Enter_Port_PORT_EXCLUSIVE_AREA_13
                0x00099df8                SchM_Exit_Port_PORT_EXCLUSIVE_AREA_13
                0x00099e28                SchM_Enter_Port_PORT_EXCLUSIVE_AREA_14
                0x00099e60                SchM_Exit_Port_PORT_EXCLUSIVE_AREA_14
                0x00099e90                SchM_Enter_Port_PORT_EXCLUSIVE_AREA_15
                0x00099ec8                SchM_Exit_Port_PORT_EXCLUSIVE_AREA_15
                0x00099ef8                SchM_Enter_Port_PORT_EXCLUSIVE_AREA_16
                0x00099f30                SchM_Exit_Port_PORT_EXCLUSIVE_AREA_16
                0x00099f60                SchM_Enter_Port_PORT_EXCLUSIVE_AREA_17
                0x00099f98                SchM_Exit_Port_PORT_EXCLUSIVE_AREA_17
                0x00099fc8                SchM_Enter_Port_PORT_EXCLUSIVE_AREA_18
                0x0009a000                SchM_Exit_Port_PORT_EXCLUSIVE_AREA_18
                0x0009a030                SchM_Enter_Port_PORT_EXCLUSIVE_AREA_19
                0x0009a068                SchM_Exit_Port_PORT_EXCLUSIVE_AREA_19
                0x0009a098                SchM_Enter_Port_PORT_EXCLUSIVE_AREA_20
                0x0009a0d0                SchM_Exit_Port_PORT_EXCLUSIVE_AREA_20
                0x0009a100                SchM_Enter_Port_PORT_EXCLUSIVE_AREA_21
                0x0009a138                SchM_Exit_Port_PORT_EXCLUSIVE_AREA_21
                0x0009a168                SchM_Enter_Port_PORT_EXCLUSIVE_AREA_22
                0x0009a1a0                SchM_Exit_Port_PORT_EXCLUSIVE_AREA_22
                0x0009a1d0                SchM_Enter_Port_PORT_EXCLUSIVE_AREA_23
                0x0009a208                SchM_Exit_Port_PORT_EXCLUSIVE_AREA_23
                0x0009a238                SchM_Enter_Port_PORT_EXCLUSIVE_AREA_24
                0x0009a270                SchM_Exit_Port_PORT_EXCLUSIVE_AREA_24
                0x0009a2a0                SchM_Enter_Port_PORT_EXCLUSIVE_AREA_25
                0x0009a2d8                SchM_Exit_Port_PORT_EXCLUSIVE_AREA_25
                0x0009a308                SchM_Enter_Port_PORT_EXCLUSIVE_AREA_26
                0x0009a340                SchM_Exit_Port_PORT_EXCLUSIVE_AREA_26
                0x0009a370                SchM_Enter_Port_PORT_EXCLUSIVE_AREA_27
                0x0009a3a8                SchM_Exit_Port_PORT_EXCLUSIVE_AREA_27
 .mcal_text     0x0009a3d8      0xe38 ./RTD/src/SchM_Pwm.o
                0x0009a3d8                SchM_Enter_Pwm_PWM_EXCLUSIVE_AREA_00
                0x0009a410                SchM_Exit_Pwm_PWM_EXCLUSIVE_AREA_00
                0x0009a440                SchM_Enter_Pwm_PWM_EXCLUSIVE_AREA_01
                0x0009a478                SchM_Exit_Pwm_PWM_EXCLUSIVE_AREA_01
                0x0009a4a8                SchM_Enter_Pwm_PWM_EXCLUSIVE_AREA_02
                0x0009a4e0                SchM_Exit_Pwm_PWM_EXCLUSIVE_AREA_02
                0x0009a510                SchM_Enter_Pwm_PWM_EXCLUSIVE_AREA_03
                0x0009a548                SchM_Exit_Pwm_PWM_EXCLUSIVE_AREA_03
                0x0009a578                SchM_Enter_Pwm_PWM_EXCLUSIVE_AREA_04
                0x0009a5b0                SchM_Exit_Pwm_PWM_EXCLUSIVE_AREA_04
                0x0009a5e0                SchM_Enter_Pwm_PWM_EXCLUSIVE_AREA_05
                0x0009a618                SchM_Exit_Pwm_PWM_EXCLUSIVE_AREA_05
                0x0009a648                SchM_Enter_Pwm_PWM_EXCLUSIVE_AREA_06
                0x0009a680                SchM_Exit_Pwm_PWM_EXCLUSIVE_AREA_06
                0x0009a6b0                SchM_Enter_Pwm_PWM_EXCLUSIVE_AREA_07
                0x0009a6e8                SchM_Exit_Pwm_PWM_EXCLUSIVE_AREA_07
                0x0009a718                SchM_Enter_Pwm_PWM_EXCLUSIVE_AREA_08
                0x0009a750                SchM_Exit_Pwm_PWM_EXCLUSIVE_AREA_08
                0x0009a780                SchM_Enter_Pwm_PWM_EXCLUSIVE_AREA_09
                0x0009a7b8                SchM_Exit_Pwm_PWM_EXCLUSIVE_AREA_09
                0x0009a7e8                SchM_Enter_Pwm_PWM_EXCLUSIVE_AREA_10
                0x0009a820                SchM_Exit_Pwm_PWM_EXCLUSIVE_AREA_10
                0x0009a850                SchM_Enter_Pwm_PWM_EXCLUSIVE_AREA_11
                0x0009a888                SchM_Exit_Pwm_PWM_EXCLUSIVE_AREA_11
                0x0009a8b8                SchM_Enter_Pwm_PWM_EXCLUSIVE_AREA_12
                0x0009a8f0                SchM_Exit_Pwm_PWM_EXCLUSIVE_AREA_12
                0x0009a920                SchM_Enter_Pwm_PWM_EXCLUSIVE_AREA_13
                0x0009a958                SchM_Exit_Pwm_PWM_EXCLUSIVE_AREA_13
                0x0009a988                SchM_Enter_Pwm_PWM_EXCLUSIVE_AREA_14
                0x0009a9c0                SchM_Exit_Pwm_PWM_EXCLUSIVE_AREA_14
                0x0009a9f0                SchM_Enter_Pwm_PWM_EXCLUSIVE_AREA_15
                0x0009aa28                SchM_Exit_Pwm_PWM_EXCLUSIVE_AREA_15
                0x0009aa58                SchM_Enter_Pwm_PWM_EXCLUSIVE_AREA_16
                0x0009aa90                SchM_Exit_Pwm_PWM_EXCLUSIVE_AREA_16
                0x0009aac0                SchM_Enter_Pwm_PWM_EXCLUSIVE_AREA_17
                0x0009aaf8                SchM_Exit_Pwm_PWM_EXCLUSIVE_AREA_17
                0x0009ab28                SchM_Enter_Pwm_PWM_EXCLUSIVE_AREA_18
                0x0009ab60                SchM_Exit_Pwm_PWM_EXCLUSIVE_AREA_18
                0x0009ab90                SchM_Enter_Pwm_PWM_EXCLUSIVE_AREA_19
                0x0009abc8                SchM_Exit_Pwm_PWM_EXCLUSIVE_AREA_19
                0x0009abf8                SchM_Enter_Pwm_PWM_EXCLUSIVE_AREA_20
                0x0009ac30                SchM_Exit_Pwm_PWM_EXCLUSIVE_AREA_20
                0x0009ac60                SchM_Enter_Pwm_PWM_EXCLUSIVE_AREA_21
                0x0009ac98                SchM_Exit_Pwm_PWM_EXCLUSIVE_AREA_21
                0x0009acc8                SchM_Enter_Pwm_PWM_EXCLUSIVE_AREA_22
                0x0009ad00                SchM_Exit_Pwm_PWM_EXCLUSIVE_AREA_22
                0x0009ad30                SchM_Enter_Pwm_PWM_EXCLUSIVE_AREA_23
                0x0009ad68                SchM_Exit_Pwm_PWM_EXCLUSIVE_AREA_23
                0x0009ad98                SchM_Enter_Pwm_PWM_EXCLUSIVE_AREA_24
                0x0009add0                SchM_Exit_Pwm_PWM_EXCLUSIVE_AREA_24
                0x0009ae00                SchM_Enter_Pwm_PWM_EXCLUSIVE_AREA_25
                0x0009ae38                SchM_Exit_Pwm_PWM_EXCLUSIVE_AREA_25
                0x0009ae68                SchM_Enter_Pwm_PWM_EXCLUSIVE_AREA_26
                0x0009aea0                SchM_Exit_Pwm_PWM_EXCLUSIVE_AREA_26
                0x0009aed0                SchM_Enter_Pwm_PWM_EXCLUSIVE_AREA_27
                0x0009af08                SchM_Exit_Pwm_PWM_EXCLUSIVE_AREA_27
                0x0009af38                SchM_Enter_Pwm_PWM_EXCLUSIVE_AREA_28
                0x0009af70                SchM_Exit_Pwm_PWM_EXCLUSIVE_AREA_28
                0x0009afa0                SchM_Enter_Pwm_PWM_EXCLUSIVE_AREA_29
                0x0009afd8                SchM_Exit_Pwm_PWM_EXCLUSIVE_AREA_29
                0x0009b008                SchM_Enter_Pwm_PWM_EXCLUSIVE_AREA_30
                0x0009b040                SchM_Exit_Pwm_PWM_EXCLUSIVE_AREA_30
                0x0009b070                SchM_Enter_Pwm_PWM_EXCLUSIVE_AREA_31
                0x0009b0a8                SchM_Exit_Pwm_PWM_EXCLUSIVE_AREA_31
                0x0009b0d8                SchM_Enter_Pwm_PWM_EXCLUSIVE_AREA_32
                0x0009b110                SchM_Exit_Pwm_PWM_EXCLUSIVE_AREA_32
                0x0009b140                SchM_Enter_Pwm_PWM_EXCLUSIVE_AREA_33
                0x0009b178                SchM_Exit_Pwm_PWM_EXCLUSIVE_AREA_33
                0x0009b1a8                SchM_Enter_Pwm_PWM_EXCLUSIVE_AREA_34
                0x0009b1e0                SchM_Exit_Pwm_PWM_EXCLUSIVE_AREA_34
 .mcal_text     0x0009b210      0x548 ./RTD/src/SchM_Rm.o
                0x0009b210                SchM_Enter_Rm_RM_EXCLUSIVE_AREA_00
                0x0009b248                SchM_Exit_Rm_RM_EXCLUSIVE_AREA_00
                0x0009b278                SchM_Enter_Rm_RM_EXCLUSIVE_AREA_01
                0x0009b2b0                SchM_Exit_Rm_RM_EXCLUSIVE_AREA_01
                0x0009b2e0                SchM_Enter_Rm_RM_EXCLUSIVE_AREA_02
                0x0009b318                SchM_Exit_Rm_RM_EXCLUSIVE_AREA_02
                0x0009b348                SchM_Enter_Rm_RM_EXCLUSIVE_AREA_03
                0x0009b380                SchM_Exit_Rm_RM_EXCLUSIVE_AREA_03
                0x0009b3b0                SchM_Enter_Rm_RM_EXCLUSIVE_AREA_04
                0x0009b3e8                SchM_Exit_Rm_RM_EXCLUSIVE_AREA_04
                0x0009b418                SchM_Enter_Rm_RM_EXCLUSIVE_AREA_05
                0x0009b450                SchM_Exit_Rm_RM_EXCLUSIVE_AREA_05
                0x0009b480                SchM_Enter_Rm_RM_EXCLUSIVE_AREA_06
                0x0009b4b8                SchM_Exit_Rm_RM_EXCLUSIVE_AREA_06
                0x0009b4e8                SchM_Enter_Rm_RM_EXCLUSIVE_AREA_07
                0x0009b520                SchM_Exit_Rm_RM_EXCLUSIVE_AREA_07
                0x0009b550                SchM_Enter_Rm_RM_EXCLUSIVE_AREA_08
                0x0009b588                SchM_Exit_Rm_RM_EXCLUSIVE_AREA_08
                0x0009b5b8                SchM_Enter_Rm_RM_EXCLUSIVE_AREA_09
                0x0009b5f0                SchM_Exit_Rm_RM_EXCLUSIVE_AREA_09
                0x0009b620                SchM_Enter_Rm_RM_EXCLUSIVE_AREA_10
                0x0009b658                SchM_Exit_Rm_RM_EXCLUSIVE_AREA_10
                0x0009b688                SchM_Enter_Rm_RM_EXCLUSIVE_AREA_11
                0x0009b6c0                SchM_Exit_Rm_RM_EXCLUSIVE_AREA_11
                0x0009b6f0                SchM_Enter_Rm_RM_EXCLUSIVE_AREA_12
                0x0009b728                SchM_Exit_Rm_RM_EXCLUSIVE_AREA_12
 .mcal_text     0x0009b758      0x7b8 ./RTD/src/SchM_Spi.o
                0x0009b758                SchM_Enter_Spi_SPI_EXCLUSIVE_AREA_00
                0x0009b790                SchM_Exit_Spi_SPI_EXCLUSIVE_AREA_00
                0x0009b7c0                SchM_Enter_Spi_SPI_EXCLUSIVE_AREA_01
                0x0009b7f8                SchM_Exit_Spi_SPI_EXCLUSIVE_AREA_01
                0x0009b828                SchM_Enter_Spi_SPI_EXCLUSIVE_AREA_02
                0x0009b860                SchM_Exit_Spi_SPI_EXCLUSIVE_AREA_02
                0x0009b890                SchM_Enter_Spi_SPI_EXCLUSIVE_AREA_03
                0x0009b8c8                SchM_Exit_Spi_SPI_EXCLUSIVE_AREA_03
                0x0009b8f8                SchM_Enter_Spi_SPI_EXCLUSIVE_AREA_04
                0x0009b930                SchM_Exit_Spi_SPI_EXCLUSIVE_AREA_04
                0x0009b960                SchM_Enter_Spi_SPI_EXCLUSIVE_AREA_05
                0x0009b998                SchM_Exit_Spi_SPI_EXCLUSIVE_AREA_05
                0x0009b9c8                SchM_Enter_Spi_SPI_EXCLUSIVE_AREA_06
                0x0009ba00                SchM_Exit_Spi_SPI_EXCLUSIVE_AREA_06
                0x0009ba30                SchM_Enter_Spi_SPI_EXCLUSIVE_AREA_07
                0x0009ba68                SchM_Exit_Spi_SPI_EXCLUSIVE_AREA_07
                0x0009ba98                SchM_Enter_Spi_SPI_EXCLUSIVE_AREA_08
                0x0009bad0                SchM_Exit_Spi_SPI_EXCLUSIVE_AREA_08
                0x0009bb00                SchM_Enter_Spi_SPI_EXCLUSIVE_AREA_09
                0x0009bb38                SchM_Exit_Spi_SPI_EXCLUSIVE_AREA_09
                0x0009bb68                SchM_Enter_Spi_SPI_EXCLUSIVE_AREA_10
                0x0009bba0                SchM_Exit_Spi_SPI_EXCLUSIVE_AREA_10
                0x0009bbd0                SchM_Enter_Spi_SPI_EXCLUSIVE_AREA_11
                0x0009bc08                SchM_Exit_Spi_SPI_EXCLUSIVE_AREA_11
                0x0009bc38                SchM_Enter_Spi_SPI_EXCLUSIVE_AREA_12
                0x0009bc70                SchM_Exit_Spi_SPI_EXCLUSIVE_AREA_12
                0x0009bca0                SchM_Enter_Spi_SPI_EXCLUSIVE_AREA_13
                0x0009bcd8                SchM_Exit_Spi_SPI_EXCLUSIVE_AREA_13
                0x0009bd08                SchM_Enter_Spi_SPI_EXCLUSIVE_AREA_14
                0x0009bd40                SchM_Exit_Spi_SPI_EXCLUSIVE_AREA_14
                0x0009bd70                SchM_Enter_Spi_SPI_EXCLUSIVE_AREA_15
                0x0009bda8                SchM_Exit_Spi_SPI_EXCLUSIVE_AREA_15
                0x0009bdd8                SchM_Enter_Spi_SPI_EXCLUSIVE_AREA_16
                0x0009be10                SchM_Exit_Spi_SPI_EXCLUSIVE_AREA_16
                0x0009be40                SchM_Enter_Spi_SPI_EXCLUSIVE_AREA_17
                0x0009be78                SchM_Exit_Spi_SPI_EXCLUSIVE_AREA_17
                0x0009bea8                SchM_Enter_Spi_SPI_EXCLUSIVE_AREA_18
                0x0009bee0                SchM_Exit_Spi_SPI_EXCLUSIVE_AREA_18
 .mcal_text     0x0009bf10      0x618 ./RTD/src/SchM_Wdg.o
                0x0009bf10                SchM_Enter_Wdg_WDG_EXCLUSIVE_AREA_00
                0x0009bf48                SchM_Exit_Wdg_WDG_EXCLUSIVE_AREA_00
                0x0009bf78                SchM_Enter_Wdg_WDG_EXCLUSIVE_AREA_01
                0x0009bfb0                SchM_Exit_Wdg_WDG_EXCLUSIVE_AREA_01
                0x0009bfe0                SchM_Enter_Wdg_WDG_EXCLUSIVE_AREA_02
                0x0009c018                SchM_Exit_Wdg_WDG_EXCLUSIVE_AREA_02
                0x0009c048                SchM_Enter_Wdg_WDG_EXCLUSIVE_AREA_03
                0x0009c080                SchM_Exit_Wdg_WDG_EXCLUSIVE_AREA_03
                0x0009c0b0                SchM_Enter_Wdg_WDG_EXCLUSIVE_AREA_04
                0x0009c0e8                SchM_Exit_Wdg_WDG_EXCLUSIVE_AREA_04
                0x0009c118                SchM_Enter_Wdg_WDG_EXCLUSIVE_AREA_05
                0x0009c150                SchM_Exit_Wdg_WDG_EXCLUSIVE_AREA_05
                0x0009c180                SchM_Enter_Wdg_WDG_EXCLUSIVE_AREA_06
                0x0009c1b8                SchM_Exit_Wdg_WDG_EXCLUSIVE_AREA_06
                0x0009c1e8                SchM_Enter_Wdg_WDG_EXCLUSIVE_AREA_07
                0x0009c220                SchM_Exit_Wdg_WDG_EXCLUSIVE_AREA_07
                0x0009c250                SchM_Enter_Wdg_WDG_EXCLUSIVE_AREA_08
                0x0009c288                SchM_Exit_Wdg_WDG_EXCLUSIVE_AREA_08
                0x0009c2b8                SchM_Enter_Wdg_WDG_EXCLUSIVE_AREA_09
                0x0009c2f0                SchM_Exit_Wdg_WDG_EXCLUSIVE_AREA_09
                0x0009c320                SchM_Enter_Wdg_WDG_EXCLUSIVE_AREA_10
                0x0009c358                SchM_Exit_Wdg_WDG_EXCLUSIVE_AREA_10
                0x0009c388                SchM_Enter_Wdg_WDG_EXCLUSIVE_AREA_11
                0x0009c3c0                SchM_Exit_Wdg_WDG_EXCLUSIVE_AREA_11
                0x0009c3f0                SchM_Enter_Wdg_WDG_EXCLUSIVE_AREA_12
                0x0009c428                SchM_Exit_Wdg_WDG_EXCLUSIVE_AREA_12
                0x0009c458                SchM_Enter_Wdg_WDG_EXCLUSIVE_AREA_13
                0x0009c490                SchM_Exit_Wdg_WDG_EXCLUSIVE_AREA_13
                0x0009c4c0                SchM_Enter_Wdg_WDG_EXCLUSIVE_AREA_14
                0x0009c4f8                SchM_Exit_Wdg_WDG_EXCLUSIVE_AREA_14
 .mcal_text     0x0009c528      0x8a4 ./RTD/src/Spi.o
                0x0009c630                Spi_GetVersionInfo
                0x0009c640                Spi_Init
                0x0009c768                Spi_WriteIB
                0x0009c7c4                Spi_AsyncTransmit
                0x0009c8d4                Spi_ReadIB
                0x0009c90c                Spi_SetupEB
                0x0009c974                Spi_GetStatus
                0x0009c9cc                Spi_DeInit
                0x0009ca1c                Spi_GetJobResult
                0x0009ca2c                Spi_GetSequenceResult
                0x0009ca38                Spi_SyncTransmit
                0x0009cbe0                Spi_GetHWUnitStatus
                0x0009cbf0                Spi_Cancel
                0x0009cc00                Spi_SetAsyncMode
                0x0009cc60                Spi_SetHWUnitAsyncMode
                0x0009cc94                Spi_MainFunction_Handling
                0x0009ccd0                Spi_JobTransferFinished
 .mcal_text     0x0009cdcc      0x37c ./RTD/src/Spi_Ipw.o
                0x0009cec2                Spi_Ipw_Init
                0x0009ced8                Spi_Ipw_DeInit
                0x0009cef4                Spi_Ipw_SyncTransmit
                0x0009d01c                Spi_Ipw_IrqPoll
                0x0009d048                Spi_Ipw_IrqConfig
                0x0009d074                Spi_Ipw_JobTransfer
 .mcal_text     0x0009d148       0x20 ./RTD/src/System_Ip.o
                0x0009d148                System_Ip_ConfigIrq
 .mcal_text     0x0009d168       0xd8 ./RTD/src/Trgmux_Ip.o
                0x0009d168                Trgmux_Ip_Init
                0x0009d1c8                Trgmux_Ip_SetInput
                0x0009d204                Trgmux_Ip_SetLock
 .mcal_text     0x0009d240       0x64 ./RTD/src/Trgmux_Ip_HwAcc.o
                0x0009d240                hwAcc_Init
                0x0009d262                hwAcc_SetInputForOutput
                0x0009d286                hwAcc_SetLockForOutput
                0x0009d298                hwAcc_GetLockForOutput
 .mcal_text     0x0009d2a4       0x1e ./RTD/src/Wdg_43_Instance0.o
                0x0009d2a4                Wdg_43_Instance0_Init
                0x0009d2ac                Wdg_43_Instance0_SetMode
                0x0009d2b4                Wdg_43_Instance0_Service
                0x0009d2ba                Wdg_43_Instance0_GetVersionInfo
 *fill*         0x0009d2c2        0x2 
 .mcal_text     0x0009d2c4      0x1dc ./RTD/src/Wdg_Channel.o
                0x0009d300                Wdg_ChannelInit
                0x0009d3c4                Wdg_ChannelSetMode
                0x0009d47c                Wdg_ChannelGetVersionInfo
                0x0009d49a                Wdg_ChannelService
 .mcal_text     0x0009d4a0       0xec ./RTD/src/Wdg_Ipw.o
                0x0009d4a0                Wdg_Ipw_Init
                0x0009d4d4                Wdg_Ipw_SetMode
                0x0009d508                Wdg_Ipw_StartTimer
                0x0009d540                Wdg_Ipw_StopTimer
                0x0009d578                Wdg_Ipw_Service
 .mcal_text     0x0009d58c      0x414 ./RTD/src/Wdog_Ip.o
                0x0009d6a8                Wdog_Ip_Init
                0x0009d744                Wdog_Ip_DeInit
                0x0009d7b0                Wdog_Ip_Service
                0x0009d7e4                Wdog_Ip_SetTimeout
                0x0009d834                Wdog_Ip_Config
                0x0009d8d8                Wdog_Ip_StartTimer
                0x0009d91c                Wdog_Ip_StopTimer
                0x0009d95c                Wdog_Ip_IrqHandler
                0x0009d9a0                . = ALIGN (0x4)
                0x0009d9a0                acfls_code_rom_start = .
                0x0009d9a0                . = ALIGN (0x4)
 *(.acfls_code_rom)
 .acfls_code_rom
                0x0009d9a0       0x48 ./RTD/src/Ftfc_Fls_Ip_Ac.o
                0x0009d9a0                Ftfc_Fls_Ip_AccessCode
 .acfls_code_rom.__stub
                0x0009d9e8        0x8 linker stubs
                0x0009d9f0                acfls_code_rom_end = .
 *(.init)
                0x0009d9f0                . = ALIGN (0x4)
 *(.fini)
                0x0009d9f0                . = ALIGN (0x4)
 *(.rodata)
 .rodata        0x0009d9f0      0x230 ./Modules/COM_Management/COM.o
                0x0009d9f0                COM_framesMaintenance
                0x0009da40                COM_framesInternal
                0x0009db6c                COM_framesControl
 .rodata        0x0009dc20        0xf ./Modules/COM_Management/COMrx.o
 .rodata        0x0009dc2f        0x4 ./Modules/COM_Management/COMtx.o
 *fill*         0x0009dc33        0x5 
 .rodata        0x0009dc38       0x18 ./Modules/PARameters_Management/PAR.o
 .rodata        0x0009dc50      0x238 ./RTD/src/Clock_Ip_Frequency.o
 .rodata        0x0009de88       0x1c ./RTD/src/Clock_Ip_Specific.o
 *fill*         0x0009dea4        0x4 
 .rodata        0x0009dea8      0x150 ./RTD/src/Crc_Ip.o
 .rodata        0x0009dff8       0x64 ./RTD/src/Dma_Ip_Driver_State.o
 .rodata        0x0009e05c       0xdc ./RTD/src/Dma_Ip_Hw_Access.o
 .rodata        0x0009e138       0x48 ./RTD/src/FlexCAN_Ip_HwAccess.o
 .rodata        0x0009e180        0x4 ./RTD/src/LPit_Gpt_Ip.o
                0x0009e180                LPitGptBase
 .rodata        0x0009e184       0x3c ./RTD/src/Power_Ip.o
 .rodata        0x0009e1c0        0x8 ./RTD/src/WdgIf.o
                0x0009e1c0                WdgIf_SetModeFctPtr
 .rodata        0x0009e1c8        0x8 ./generate/src/Trgmux_Ip_Init_PBcfg.o
                0x0009e1c8                Trgmux_Ip_xTrgmuxInitPB_INIT
 *(.rodata*)
                0x0009e1d0                . = ALIGN (0x4)
 *(.mcal_const_cfg)
 .mcal_const_cfg
                0x0009e1d0      0xa10 ./generate/IntCtrl_Ip/IntCtrl_Ip_Cfg.o
                0x0009e1d0                intRouteConfig
                0x0009e7d8                intCtrlConfig
 .mcal_const_cfg
                0x0009ebe0       0x14 ./generate/src/CDD_Mcl_Init_PBcfg.o
                0x0009ebe0                Mcl_Config_INIT
 .mcal_const_cfg
                0x0009ebf4        0x4 ./generate/src/CDD_Rm_Init_PBcfg.o
                0x0009ebf4                Rm_Config
 .mcal_const_cfg
                0x0009ebf8        0x4 ./generate/src/CDD_Rm_Ipw_Init_PBcfg.o
                0x0009ebf8                Rm_Ipw_Config_INIT
 .mcal_const_cfg
                0x0009ebfc      0x5c8 ./generate/src/Can_Init_PBcfg.o
                0x0009ebfc                Can_Config_Init
 .mcal_const_cfg
                0x0009f1c4        0xc ./generate/src/Can_Ipw_Init_PBcfg.o
                0x0009f1c4                CanIpwHwChannelConfig_Init1
                0x0009f1c8                CanIpwHwChannelConfig_Init2
                0x0009f1cc                CanIpwHwChannelConfig_Init0
 .mcal_const_cfg
                0x0009f1d0      0x488 ./generate/src/Clock_Ip_Init_PBcfg.o
                0x0009f1d0                Mcu_aClockConfigPB_Init
 .mcal_const_cfg
                0x0009f658       0x14 ./generate/src/Crc_Cfg.o
                0x0009f658                Crc_xConfigInit
                0x0009f65c                Crc_xConfigPartition
 .mcal_const_cfg
                0x0009f66c       0x24 ./generate/src/Crc_Ip_Cfg.o
                0x0009f66c                CrcIp_xConfigInit
 .mcal_const_cfg
                0x0009f690       0x10 ./generate/src/Dio_Cfg.o
                0x0009f690                Dio_Config
 .mcal_const_cfg
                0x0009f6a0       0x74 ./generate/src/Dma_Ip_Cfg.o
                0x0009f6a0                Dma_Ip_xLogicChannelResetConfig
                0x0009f6bc                TransferResetConfig
                0x0009f6f8                GlobalResetConfig
                0x0009f704                Dma_Ip_xLogicInstanceResetConfig
 .mcal_const_cfg
                0x0009f714       0x80 ./generate/src/Dma_Ip_Init_PBcfg.o
                0x0009f714                Dma_Ip_xDmaInitPB_INIT
                0x0009f728                Dma_Ip_paxLogicChannelConfigArrayPB_INIT
                0x0009f730                LogicChannel1ConfigPB_INIT
                0x0009f74c                LogicChannel0ConfigPB_INIT
                0x0009f768                LogicChannel1GlobalConfigPB_INIT
                0x0009f773                LogicChannel0GlobalConfigPB_INIT
                0x0009f780                Dma_Ip_paxLogicInstanceConfigArrayPB_INIT
                0x0009f784                LogicInstance0ConfigPB_INIT
 .mcal_const_cfg
                0x0009f794       0xf0 ./generate/src/FlexCAN_Ip_Init_PBcfg.o
                0x0009f794                Flexcan_aCtrlConfigPB_Init
 .mcal_const_cfg
                0x0009f884       0xbb ./generate/src/Fls_Init_PBcfg.o
                0x0009f884                Fls_Config_Init
 *fill*         0x0009f93f        0x1 
 .mcal_const_cfg
                0x0009f940        0x8 ./generate/src/Ftfc_Fls_Ip_Init_PBcfg.o
                0x0009f940                FlsConfigSet_Init_InitCfg
 .mcal_const_cfg
                0x0009f948      0x504 ./generate/src/Ftm_Pwm_Ip_Init_PBcfg.o
                0x0009f948                Ftm_Pwm_Ip_Init_UserCfg1
                0x0009f95c                Ftm_Pwm_Ip_Init_I1_ChArray
                0x0009f960                Ftm_Pwm_Ip_Init_I1_Ch7
                0x0009f98c                Ftm_Pwm_Ip_Init_InstCfg1
                0x0009f9dc                Ftm_Pwm_Ip_Init_SyncCfg1
                0x0009f9fc                Ftm_Pwm_Ip_Init_UserCfg6
                0x0009fa10                Ftm_Pwm_Ip_Init_I6_ChArray
                0x0009fa1c                Ftm_Pwm_Ip_Init_I6_Ch2
                0x0009fa48                Ftm_Pwm_Ip_Init_I6_Ch1
                0x0009fa74                Ftm_Pwm_Ip_Init_I6_Ch0
                0x0009faa0                Ftm_Pwm_Ip_Init_InstCfg6
                0x0009faf0                Ftm_Pwm_Ip_Init_SyncCfg6
                0x0009fb10                Ftm_Pwm_Ip_Init_UserCfg5
                0x0009fb24                Ftm_Pwm_Ip_Init_I5_ChArray
                0x0009fb30                Ftm_Pwm_Ip_Init_I5_Ch7
                0x0009fb5c                Ftm_Pwm_Ip_Init_I5_Ch4
                0x0009fb88                Ftm_Pwm_Ip_Init_I5_Ch2
                0x0009fbb4                Ftm_Pwm_Ip_Init_InstCfg5
                0x0009fc04                Ftm_Pwm_Ip_Init_SyncCfg5
                0x0009fc24                Ftm_Pwm_Ip_Init_UserCfg4
                0x0009fc38                Ftm_Pwm_Ip_Init_I4_ChArray
                0x0009fc4c                Ftm_Pwm_Ip_Init_I4_Ch0
                0x0009fc78                Ftm_Pwm_Ip_Init_I4_Ch7
                0x0009fca4                Ftm_Pwm_Ip_Init_I4_Ch4
                0x0009fcd0                Ftm_Pwm_Ip_Init_I4_Ch3
                0x0009fcfc                Ftm_Pwm_Ip_Init_I4_Ch1
                0x0009fd28                Ftm_Pwm_Ip_Init_InstCfg4
                0x0009fd78                Ftm_Pwm_Ip_Init_SyncCfg4
                0x0009fd98                Ftm_Pwm_Ip_Init_UserCfg0
                0x0009fdac                Ftm_Pwm_Ip_Init_I0_ChArray
                0x0009fdb0                Ftm_Pwm_Ip_Init_I0_Ch1
                0x0009fddc                Ftm_Pwm_Ip_Init_InstCfg0
                0x0009fe2c                Ftm_Pwm_Ip_Init_SyncCfg0
 .mcal_const_cfg
                0x0009fe4c       0x3c ./generate/src/Gpt_Init_PBcfg.o
                0x0009fe4c                Gpt_Config_Init
 .mcal_const_cfg
                0x0009fe88       0xae ./generate/src/Icu_Init_PBcfg.o
                0x0009fe88                Icu_Config_Init
                0x0009ff30                Icu_ChIndexMap_Init
 *fill*         0x0009ff36        0x2 
 .mcal_const_cfg
                0x0009ff38       0xdc ./generate/src/Icu_Ipw_Init_PBcfg.o
                0x0009ff38                Icu_Ipw_IpConfig_Init
                0x0009ff54                Icu_Ipw_IpChannelConfig_Init
 .mcal_const_cfg
                0x000a0014       0x22 ./generate/src/LPit_Gpt_Ip_Init_PBcfg.o
                0x000a0014                LPIT_0_ChannelConfig_PB_Init
                0x000a0034                LPIT_0_InitConfig_PB_Init
 *fill*         0x000a0036        0x2 
 .mcal_const_cfg
                0x000a0038       0x68 ./generate/src/Lpspi_Ip_Init_PBcfg.o
                0x000a0038                Lpspi_Ip_PhyUnitConfig_SpiPhyUnit_2_Instance_2_Init
                0x000a0050                Lpspi_Ip_PhyUnitConfig_SpiPhyUnit_1_Instance_1_Init
                0x000a0068                Lpspi_Ip_PhyUnitConfig_SpiPhyUnit_0_Instance_0_Init
                0x000a0080                Lpspi_Ip_DeviceAttributes_HighVoltageMeasurment_Instance_2_Init
                0x000a0090                Lpspi_Ip_DeviceAttributes_LowVoltageMeasurment_Instance_0_Init
 .mcal_const_cfg
                0x000a00a0       0x1c ./generate/src/Mcu_Init_PBcfg.o
                0x000a00a0                Mcu_Config_Init
 .mcal_const_cfg
                0x000a00bc       0x78 ./generate/src/Mpu_Ip_Init_PBcfg.o
                0x000a00bc                Mpu_Config_INIT
                0x000a00d0                Mpu_Configuration_RegionConfig_INIT
 .mcal_const_cfg
                0x000a0134        0xc ./generate/src/Platform_Cfg.o
                0x000a0134                Platform_Config
 .mcal_const_cfg
                0x000a0140       0x14 ./generate/src/Platform_Ipw_Cfg.o
                0x000a0140                ipwNonCoreConfig
                0x000a0144                ipwConfig
 .mcal_const_cfg
                0x000a0154       0x80 ./generate/src/Port_Ci_Icu_Ip_Init_PBcfg.o
                0x000a0154                Port_Ci_Icu_Ip_4_Config_PB_Init
                0x000a015c                Port_Ci_Icu_Ip_4_ChannelConfig_PB_Init
 .mcal_const_cfg
                0x000a01d4      0xd20 ./generate/src/Port_Ci_Port_Ip_Init_PBcfg.o
                0x000a01d4                g_pin_mux_InitConfigArr_Init
 .mcal_const_cfg
                0x000a0ef4      0x899 ./generate/src/Port_Init_PBcfg.o
                0x000a0ef4                Port_Config_Init
 *fill*         0x000a178d        0x3 
 .mcal_const_cfg
                0x000a1790       0x34 ./generate/src/Power_Ip_Init_PBcfg.o
                0x000a1790                Power_Ip_HwIPsConfigPB_Init
                0x000a179c                Power_Ip_aModeConfigPB_Init
 .mcal_const_cfg
                0x000a17c4      0x184 ./generate/src/Pwm_Init_PBcfg.o
                0x000a17c4                Pwm_Config_Init
                0x000a17d4                Pwm_Instances_Init_PB
                0x000a1810                Pwm_Channels_Init_PB
 .mcal_const_cfg
                0x000a1948      0x16c ./generate/src/Spi_Init_PBcfg.o
                0x000a1948                Spi_Config_Init
 .mcal_const_cfg
                0x000a1ab4       0x70 ./generate/src/Spi_Ipw_Init_PBcfg.o
                0x000a1ab4                Spi_aHwUnitConfigList_Init
                0x000a1afc                Spi_aExternalDeviceConfigList_Init
 .mcal_const_cfg
                0x000a1b24        0xa ./generate/src/Trgmux_Ip_Init_PBcfg.o
                0x000a1b24                Trgmux_Ip_LogicTrigger1ConfigPB_INIT
                0x000a1b29                Trgmux_Ip_LogicTrigger0ConfigPB_INIT
 *fill*         0x000a1b2e        0x2 
 .mcal_const_cfg
                0x000a1b30       0x2c ./generate/src/Wdg_43_Instance0_Init_PBcfg.o
                0x000a1b30                Wdg_Config_0_INIT
 .mcal_const_cfg
                0x000a1b5c       0x18 ./generate/src/Wdg_43_Instance0_Ipw_Init_PBcfg.o
                0x000a1b5c                Wdg_Ipw_FastModeSettings_0_INIT
                0x000a1b64                Wdg_Ipw_SlowModeSettings_0_INIT
                0x000a1b6c                Wdg_Ipw_OffModeSettings_0_INIT
 .mcal_const_cfg
                0x000a1b74        0x8 ./generate/src/Wdg_CfgExt.o
                0x000a1b74                Wdg_au16CfgMaxTimeout
                0x000a1b78                Wdg_au16CfgInitialTimeout
 .mcal_const_cfg
                0x000a1b7c       0x3c ./generate/src/Wdog_Ip_Init_PBcfg.o
                0x000a1b7c                Wdog_Ip_FastModeSettings_INIT
                0x000a1b90                Wdog_Ip_SlowModeSettings_INIT
                0x000a1ba4                Wdog_Ip_OffModeSettings_INIT
                0x000a1bb8                . = ALIGN (0x4)
 *(.mcal_const)
 .mcal_const    0x000a1bb8        0xc ./RTD/src/Can_Ipw.o
 .mcal_const    0x000a1bc4      0x7c9 ./RTD/src/Clock_Ip_Data.o
                0x000a1bc4                Clock_Ip_aeHwDfsName
                0x000a1bc8                Clock_Ip_aeHwPllName
                0x000a1bcc                Clock_Ip_aeSourceTypeClockName
                0x000a1c9c                Clock_Ip_apxScgPeriphAsyncDivs
                0x000a1cac                Clock_Ip_au8ClockNameTypes
                0x000a1e48                Clock_Ip_au8DividerValueHardwareValue
                0x000a1e89                Clock_Ip_au8SelectorEntryPcsHardwareValue
                0x000a1ebd                Clock_Ip_au8SelectorEntryScsHardwareValue
                0x000a1ef1                Clock_Ip_au16SelectorEntryHardwareValue
                0x000a1f58                Clock_Ip_au8ClockFeatures
                0x000a22f7                Clock_Ip_au8CmuCallbackIndex
                0x000a2306                Clock_Ip_au8PcfsCallbackIndex
                0x000a2315                Clock_Ip_au8SelectorCallbackIndex
                0x000a2324                Clock_Ip_au8PllCallbackIndex
                0x000a2333                Clock_Ip_au8FractionalDividerCallbackIndex
                0x000a2342                Clock_Ip_au8GateCallbackIndex
                0x000a2351                Clock_Ip_au8IrcoscCallbackIndex
                0x000a2360                Clock_Ip_au8XoscCallbackIndex
                0x000a236f                Clock_Ip_au8DividerTriggerCallbackIndex
                0x000a237e                Clock_Ip_au8DividerCallbackIndex
 *fill*         0x000a238d        0x3 
 .mcal_const    0x000a2390       0x3c ./RTD/src/Clock_Ip_Divider.o
                0x000a2390                Clock_Ip_axDividerCallbacks
 .mcal_const    0x000a23cc        0x8 ./RTD/src/Clock_Ip_DividerTrigger.o
                0x000a23cc                Clock_Ip_axDividerTriggerCallbacks
 .mcal_const    0x000a23d4       0x28 ./RTD/src/Clock_Ip_ExtOsc.o
                0x000a23d4                Clock_Ip_axExtOscCallbacks
 .mcal_const    0x000a23fc        0xc ./RTD/src/Clock_Ip_FracDiv.o
                0x000a23fc                Clock_Ip_axFracDivCallbacks
 .mcal_const    0x000a2408       0x58 ./RTD/src/Clock_Ip_Frequency.o
 .mcal_const    0x000a2460       0x38 ./RTD/src/Clock_Ip_Gate.o
                0x000a2460                Clock_Ip_axGateCallbacks
 .mcal_const    0x000a2498       0x3c ./RTD/src/Clock_Ip_IntOsc.o
                0x000a2498                Clock_Ip_axIntOscCallbacks
 .mcal_const    0x000a24d4       0x18 ./RTD/src/Clock_Ip_Monitor.o
                0x000a24d4                Clock_Ip_axCmuCallbacks
 .mcal_const    0x000a24ec       0x28 ./RTD/src/Clock_Ip_Pll.o
                0x000a24ec                Clock_Ip_axPllCallbacks
 .mcal_const    0x000a2514        0x4 ./RTD/src/Clock_Ip_ProgFreqSwitch.o
                0x000a2514                Clock_Ip_axPcfsCallbacks
 .mcal_const    0x000a2518       0x58 ./RTD/src/Clock_Ip_Selector.o
                0x000a2518                Clock_Ip_axSelectorCallbacks
 .mcal_const    0x000a2570        0x4 ./RTD/src/Cmp_Ip.o
                0x000a2570                Cmp_Ip_apxBase
 .mcal_const    0x000a2574      0x100 ./RTD/src/Crc_Ip.o
 *fill*         0x000a2674        0x4 
 .mcal_const    0x000a2678     0x1700 ./RTD/src/Crc_Ip_Lookup_Tables.o
 .mcal_const    0x000a3d78      0x100 ./RTD/src/Crc_Ip_Software.o
 .mcal_const    0x000a3e78       0x60 ./RTD/src/Crypto.o
 .mcal_const    0x000a3ed8        0xc ./RTD/src/FlexCAN_Ip.o
 .mcal_const    0x000a3ee4        0x4 ./RTD/src/Flexio_Mcl_Ip.o
                0x000a3ee4                Flexio_Ip_paxBase
 .mcal_const    0x000a3ee8        0x4 ./RTD/src/Flexio_Pwm_Ip.o
                0x000a3ee8                Flexio_Pwm_Ip_aBasePtr
 .mcal_const    0x000a3eec        0x4 ./RTD/src/Ftfc_Fls_Ip.o
                0x000a3eec                FTFx_BaseAddress
 .mcal_const    0x000a3ef0       0x20 ./RTD/src/Ftm_Icu_Ip.o
                0x000a3ef0                ftmIcuBase
 .mcal_const    0x000a3f10       0x24 ./RTD/src/Ftm_Pwm_Ip.o
                0x000a3f10                Ftm_Pwm_Ip_aFtmBase
                0x000a3f30                Ftm_Pwm_Ip_aSimBase
 .mcal_const    0x000a3f34        0x4 ./RTD/src/Lpit_Icu_Ip.o
                0x000a3f34                lpitBase
 .mcal_const    0x000a3f38        0xc ./RTD/src/Lpspi_Ip.o
 .mcal_const    0x000a3f44        0x4 ./RTD/src/Lptmr_Icu_Ip.o
                0x000a3f44                s_lptmrBase
 .mcal_const    0x000a3f48       0x14 ./RTD/src/Port_Ci_Icu_Ip.o
                0x000a3f48                s_Port_Ci_Base
 .mcal_const    0x000a3f5c       0x1c ./generate/src/Crc_Cfg.o
                0x000a3f5c                Crc_au32Crc64BitEcma
                0x000a3f60                Crc_au32Crc32BitE2ep4
                0x000a3f64                Crc_au32Crc32BitEthernet
                0x000a3f68                Crc_au32Crc16BitArc
                0x000a3f6c                Crc_au32Crc16BitCcittFalse
                0x000a3f70                Crc_au32Crc8BitH2f
                0x000a3f74                Crc_au32Crc8BitSaeJ1850
 .mcal_const    0x000a3f78       0x18 ./generate/src/Crypto_Cfg.o
                0x000a3f78                Crypto_aDriverObjectList
 .mcal_const    0x000a3f90      0x2ac ./generate/src/Dio_Cfg.o
                0x000a3f90                Dio_aAvailablePinsForRead
                0x000a3fa4                Dio_aAvailablePinsForWrite
                0x000a3fb8                Dio_au32PortToPartitionMap
                0x000a3fcc                Dio_au32ChannelToPartitionMap
 .mcal_const    0x000a423c        0x2 ./generate/src/Gpt_Init_PBcfg.o
 .mcal_const    0x000a423e       0xa0 ./generate/src/Port_Cfg.o
                0x000a423e                Port_au16PinDescription
                0x000a42e0                . = ALIGN (0x4)
 *fill*         0x000a42de        0x2 
 *(.mcal_const_no_cacheable)
                0x000a42e0                . = ALIGN (0x4)
                0x000a42e0                __init_table = .
 *(.init_table)
 .init_table    0x000a42e0       0x1c ./Project_Settings/Startup_Code/startup_cm4.o
                0x000a42fc                . = ALIGN (0x4)
                0x000a42fc                __zero_table = .
 *(.zero_table)
 .zero_table    0x000a42fc        0xc ./Project_Settings/Startup_Code/startup_cm4.o
                0x000a4308                . = ALIGN (0x4)
 *(.acmcu_code_rom)
                0x000a4308                . = ALIGN (0x4)
                0x000a4308                _etext = .
                0x000a4308                __DATA_ROM = .
                0x000a4308                . = ALIGN (0x4)
                0x000a4308                __crc_application_address = .

.glue_7         0x000a4308        0x0
 .glue_7        0x000a4308        0x0 linker stubs

.glue_7t        0x000a4308        0x0
 .glue_7t       0x000a4308        0x0 linker stubs

.vfp11_veneer   0x000a4308        0x0
 .vfp11_veneer  0x000a4308        0x0 linker stubs

.v4_bx          0x000a4308        0x0
 .v4_bx         0x000a4308        0x0 linker stubs

.iplt           0x000a4308        0x0
 .iplt          0x000a4308        0x0 ./INI/INI.o

.igot.plt       0x000a4308        0x0
 .igot.plt      0x000a4308        0x0 ./INI/INI.o

.rel.dyn        0x000a4308        0x0
 .rel.iplt      0x000a4308        0x0 ./INI/INI.o
                0x000a4308                . = ALIGN (0x4)
                [!provide]                PROVIDE (__exidx_start = .)

.ARM.exidx
 *(.ARM.exidx* .gnu.linkonce.armexidx.*)
                0x000a4308                . = ALIGN (0x4)
                [!provide]                PROVIDE (__exidx_end = .)

.ARM.extab      0x1ffe0100        0x0
 *(.ARM.extab*)
                0x1ffe0100                . = ALIGN (0x4)

.sram_interrupts
                0x1ffe0100     0x1210
                0x1ffe1000                . = ALIGN (0x1000)
 *fill*         0x1ffe0100      0xf00 
                0x1ffe1000                __interrupts_ram_start = .
                0x1ffe1310                . = (. + (__interrupts_rom_end - __interrupts_rom_start))
 *fill*         0x1ffe1000      0x310 
                0x1ffe1310                . = ALIGN (0x4)
                0x1ffe1310                __interrupts_ram_end = .

.sram_data      0x1ffe1310     0x1718 load address 0x000a4308
                0x1ffe1310                . = ALIGN (0x4)
                0x1ffe1310                __data_ram_start = .
 *(.ramcode)
 .ramcode       0x1ffe1310       0xdc ./RTD/src/Csec_Ip.o
                0x1ffe1310                Csec_Ip_VerifyMacAddrMode
                0x1ffe138c                Csec_Ip_GenerateMacAddrMode
 .ramcode       0x1ffe13ec       0x30 ./RTD/src/Ftfc_Fls_Ip.o
                0x1ffe13ec                Ftfc_Fls_Ip_InvalidPrefetchBuff_Ram
 *fill*         0x1ffe141c        0x4 
 .ramcode.__stub
                0x1ffe1420       0x20 linker stubs
                0x1ffe1440                . = ALIGN (0x4)
 *(.data)
 .data          0x1ffe1440        0x0 ./INI/INI.o
 .data          0x1ffe1440        0x0 ./Middlewares/CAN/CBUctrl.o
 .data          0x1ffe1440        0x0 ./Middlewares/CAN/CBUinter.o
 .data          0x1ffe1440        0x0 ./Middlewares/CAN/CBUmaint.o
 .data          0x1ffe1440        0x0 ./Middlewares/CAN/CBUs.o
 .data          0x1ffe1440        0x0 ./Middlewares/FLA/FLA.o
 .data          0x1ffe1440        0x0 ./Middlewares/SPC/SPC.o
 .data          0x1ffe1440        0x0 ./Middlewares/WDO_Management/WDO.o
 .data          0x1ffe1440        0x0 ./Modules/ACTivity_Management/ACT.o
 .data          0x1ffe1440        0x0 ./Modules/ACTivity_Management/ACTupdat.o
 .data          0x1ffe1440        0x0 ./Modules/CNV/CNV.o
 .data          0x1ffe1440        0x0 ./Modules/COM_Management/COM.o
 .data          0x1ffe1440        0x0 ./Modules/COM_Management/COMrx.o
 .data          0x1ffe1440        0x0 ./Modules/COM_Management/COMtx.o
 .data          0x1ffe1440        0x0 ./Modules/CTB/CTB.o
 .data          0x1ffe1440        0x0 ./Modules/CTB/CTBCbit.o
 .data          0x1ffe1440        0x0 ./Modules/CTB/CTBPbit.o
 .data          0x1ffe1440        0x0 ./Modules/CTB/CTBio.o
 .data          0x1ffe1440        0x0 ./Modules/DBG/DBG.o
 .data          0x1ffe1440        0x0 ./Modules/FSM/FSM.o
 .data          0x1ffe1440        0x0 ./Modules/FSM/FSMupdat.o
 .data          0x1ffe1440        0x0 ./Modules/MPM/MPM.o
 .data          0x1ffe1440        0x0 ./Modules/PARameters_Management/PAR.o
 .data          0x1ffe1440        0x0 ./Modules/PARameters_Management/PARcheck.o
 .data          0x1ffe1440      0x754 ./Modules/PARameters_Management/PARconfig.o
                0x1ffe1440                PAR_paramConfig
 .data          0x1ffe1b94        0x0 ./Modules/PARameters_Management/PARupdat.o
 .data          0x1ffe1b94        0x0 ./Modules/PWB/PWB.o
 .data          0x1ffe1b94        0x4 ./Modules/PWB/PWBCbit.o
 .data          0x1ffe1b98        0x0 ./Modules/PWB/PWBPbit.o
 .data          0x1ffe1b98        0x0 ./Modules/PWB/PWBio.o
 .data          0x1ffe1b98        0x0 ./Project_Settings/Startup_Code/Vector_Table.o
 .data          0x1ffe1b98        0x0 ./Project_Settings/Startup_Code/exceptions.o
 .data          0x1ffe1b98        0x0 ./Project_Settings/Startup_Code/nvic.o
 .data          0x1ffe1b98        0x0 ./Project_Settings/Startup_Code/startup.o
 .data          0x1ffe1b98        0x0 ./Project_Settings/Startup_Code/startup_cm4.o
 .data          0x1ffe1b98        0x0 ./Project_Settings/Startup_Code/system.o
 .data          0x1ffe1b98        0x0 ./RTD/src/CDD_Crc.o
 .data          0x1ffe1b98        0x0 ./RTD/src/CDD_Mcl.o
 .data          0x1ffe1b98        0x0 ./RTD/src/CDD_Mcl_Ipw.o
 .data          0x1ffe1b98        0x0 ./RTD/src/CDD_Rm.o
 .data          0x1ffe1b98        0x0 ./RTD/src/CDD_Rm_Ipw.o
 .data          0x1ffe1b98        0x0 ./RTD/src/Can.o
 .data          0x1ffe1b98        0x0 ./RTD/src/Can_Ipw.o
 .data          0x1ffe1b98        0x0 ./RTD/src/Can_Irq.o
 .data          0x1ffe1b98        0x0 ./RTD/src/Clock_Ip.o
 .data          0x1ffe1b98        0x0 ./RTD/src/Clock_Ip_Data.o
 .data          0x1ffe1b98        0x0 ./RTD/src/Clock_Ip_Divider.o
 .data          0x1ffe1b98        0x0 ./RTD/src/Clock_Ip_DividerTrigger.o
 .data          0x1ffe1b98        0x0 ./RTD/src/Clock_Ip_ExtOsc.o
 .data          0x1ffe1b98        0x0 ./RTD/src/Clock_Ip_FracDiv.o
 .data          0x1ffe1b98        0x8 ./RTD/src/Clock_Ip_Frequency.o
 .data          0x1ffe1ba0        0x0 ./RTD/src/Clock_Ip_Gate.o
 .data          0x1ffe1ba0        0x0 ./RTD/src/Clock_Ip_IntOsc.o
 .data          0x1ffe1ba0        0x0 ./RTD/src/Clock_Ip_Irq.o
 .data          0x1ffe1ba0        0x0 ./RTD/src/Clock_Ip_Monitor.o
 .data          0x1ffe1ba0        0x0 ./RTD/src/Clock_Ip_Pll.o
 .data          0x1ffe1ba0        0x0 ./RTD/src/Clock_Ip_ProgFreqSwitch.o
 .data          0x1ffe1ba0        0x0 ./RTD/src/Clock_Ip_Selector.o
 .data          0x1ffe1ba0        0x0 ./RTD/src/Clock_Ip_Specific.o
 .data          0x1ffe1ba0        0x0 ./RTD/src/Cmp_Ip.o
 .data          0x1ffe1ba0        0x0 ./RTD/src/Crc_Ip.o
 .data          0x1ffe1ba0        0x0 ./RTD/src/Crc_Ip_Hardware.o
 .data          0x1ffe1ba0        0x0 ./RTD/src/Crc_Ip_Lookup_Tables.o
 .data          0x1ffe1ba0        0x0 ./RTD/src/Crc_Ip_Software.o
 .data          0x1ffe1ba0        0x0 ./RTD/src/CryIf.o
 .data          0x1ffe1ba0        0x0 ./RTD/src/Crypto.o
 .data          0x1ffe1ba0        0x0 ./RTD/src/Crypto_ASRExtension.o
 .data          0x1ffe1ba0        0x0 ./RTD/src/Crypto_Ipw.o
 .data          0x1ffe1ba0        0x0 ./RTD/src/Crypto_KeyManagement.o
 .data          0x1ffe1ba0        0x0 ./RTD/src/Crypto_Util.o
 .data          0x1ffe1ba0        0x0 ./RTD/src/Csec_Ip.o
 .data          0x1ffe1ba0        0x0 ./RTD/src/Csec_Ip_Irq.o
 .data          0x1ffe1ba0        0x0 ./RTD/src/Det.o
 .data          0x1ffe1ba0        0x0 ./RTD/src/Det_stub.o
 .data          0x1ffe1ba0        0x0 ./RTD/src/Dio.o
 .data          0x1ffe1ba0        0x0 ./RTD/src/Dio_Ipw.o
 .data          0x1ffe1ba0        0x0 ./RTD/src/Dma_Ip.o
 .data          0x1ffe1ba0        0x0 ./RTD/src/Dma_Ip_Driver_State.o
 .data          0x1ffe1ba0        0x0 ./RTD/src/Dma_Ip_Hw_Access.o
 .data          0x1ffe1ba0        0x0 ./RTD/src/Dma_Ip_Irq.o
 .data          0x1ffe1ba0        0x0 ./RTD/src/Dma_Ip_Multicore.o
 .data          0x1ffe1ba0        0x0 ./RTD/src/EcuM.o
 .data          0x1ffe1ba0        0x0 ./RTD/src/FlexCAN_Ip.o
 .data          0x1ffe1ba0        0x0 ./RTD/src/FlexCAN_Ip_HwAccess.o
 .data          0x1ffe1ba0        0x0 ./RTD/src/FlexCAN_Ip_Irq.o
 .data          0x1ffe1ba0        0x0 ./RTD/src/Flexio_Mcl_Ip.o
 .data          0x1ffe1ba0        0x0 ./RTD/src/Flexio_Mcl_Ip_HwAccess.o
 .data          0x1ffe1ba0        0x0 ./RTD/src/Flexio_Mcl_Ip_Irq.o
 .data          0x1ffe1ba0        0x0 ./RTD/src/Flexio_Pwm_Ip.o
 .data          0x1ffe1ba0        0x0 ./RTD/src/Flexio_Pwm_Ip_Irq.o
 .data          0x1ffe1ba0        0x0 ./RTD/src/Flexio_Spi_Ip.o
 .data          0x1ffe1ba0        0x0 ./RTD/src/Flexio_Spi_Ip_Irq.o
 .data          0x1ffe1ba0        0x0 ./RTD/src/Fls.o
 .data          0x1ffe1ba0        0x0 ./RTD/src/Fls_IPW.o
 .data          0x1ffe1ba0        0x0 ./RTD/src/Ftfc_Fls_Ip.o
 .data          0x1ffe1ba0        0x0 ./RTD/src/Ftfc_Fls_Ip_Ac.o
 .data          0x1ffe1ba0        0x0 ./RTD/src/Ftm_Gpt_Ip.o
 .data          0x1ffe1ba0        0x0 ./RTD/src/Ftm_Icu_Ip.o
 .data          0x1ffe1ba0        0x0 ./RTD/src/Ftm_Icu_Ip_Irq.o
 .data          0x1ffe1ba0        0x0 ./RTD/src/Ftm_Mcl_Ip.o
 .data          0x1ffe1ba0        0x0 ./RTD/src/Ftm_Pwm_Ip.o
 .data          0x1ffe1ba0        0x0 ./RTD/src/Ftm_Pwm_Ip_Irq.o
 .data          0x1ffe1ba0        0x0 ./RTD/src/Gpio_Dio_Ip.o
 .data          0x1ffe1ba0        0x0 ./RTD/src/Gpt.o
 .data          0x1ffe1ba0        0x0 ./RTD/src/Gpt_Ipw.o
 .data          0x1ffe1ba0        0x0 ./RTD/src/Icu.o
 .data          0x1ffe1ba0        0x0 ./RTD/src/Icu_Ipw.o
 .data          0x1ffe1ba0        0x0 ./RTD/src/IntCtrl_Ip.o
 .data          0x1ffe1ba0        0x0 ./RTD/src/LPit_Gpt_Ip.o
 .data          0x1ffe1ba0        0x0 ./RTD/src/Lpit_Icu_Ip.o
 .data          0x1ffe1ba0        0x0 ./RTD/src/Lpit_Icu_Ip_Irq.o
 .data          0x1ffe1ba0        0x0 ./RTD/src/Lpspi_Ip.o
 .data          0x1ffe1ba0        0x0 ./RTD/src/Lpspi_Ip_Irq.o
 .data          0x1ffe1ba0        0x0 ./RTD/src/Lptmr_Gpt_Ip.o
 .data          0x1ffe1ba0        0x0 ./RTD/src/Lptmr_Icu_Ip.o
 .data          0x1ffe1ba0        0x0 ./RTD/src/Lptmr_Icu_Ip_Irq.o
 .data          0x1ffe1ba0        0x0 ./RTD/src/Mcu.o
 .data          0x1ffe1ba0        0x0 ./RTD/src/Mcu_Dem_Wrapper.o
 .data          0x1ffe1ba0        0x0 ./RTD/src/Mcu_Ipw.o
 .data          0x1ffe1ba0        0x0 ./RTD/src/Mcu_Ipw_Irq.o
 .data          0x1ffe1ba0        0x0 ./RTD/src/Mpu_Ip.o
 .data          0x1ffe1ba0        0x0 ./RTD/src/OsIf_Interrupts.o
 .data          0x1ffe1ba0        0x0 ./RTD/src/OsIf_Timer.o
 .data          0x1ffe1ba0        0x0 ./RTD/src/OsIf_Timer_System.o
 .data          0x1ffe1ba0        0x0 ./RTD/src/OsIf_Timer_System_Internal_Systick.o
 .data          0x1ffe1ba0        0x0 ./RTD/src/Os_counter_api.o
 .data          0x1ffe1ba0        0x0 ./RTD/src/Os_multicore.o
 .data          0x1ffe1ba0        0x0 ./RTD/src/Platform.o
 .data          0x1ffe1ba0        0x0 ./RTD/src/Platform_Ipw.o
 .data          0x1ffe1ba0        0x0 ./RTD/src/Port.o
 .data          0x1ffe1ba0        0x0 ./RTD/src/Port_Ci_Icu_Ip.o
 .data          0x1ffe1ba0        0x0 ./RTD/src/Port_Ci_Icu_Ip_Irq.o
 .data          0x1ffe1ba0       0x28 ./RTD/src/Port_Ci_Port_Ip.o
                0x1ffe1ba0                Port_au32PortCiGpioBaseAddr
                0x1ffe1bb4                Port_au32PortCiPortBaseAddr
 .data          0x1ffe1bc8        0x0 ./RTD/src/Port_Ipw.o
 .data          0x1ffe1bc8        0x0 ./RTD/src/Power_Ip.o
 .data          0x1ffe1bc8        0x0 ./RTD/src/Power_Ip_CortexM4.o
 .data          0x1ffe1bc8        0x0 ./RTD/src/Power_Ip_PMC.o
 .data          0x1ffe1bc8        0x0 ./RTD/src/Power_Ip_PMC_Irq.o
 .data          0x1ffe1bc8        0x0 ./RTD/src/Power_Ip_Private.o
 .data          0x1ffe1bc8        0x0 ./RTD/src/Power_Ip_RCM.o
 .data          0x1ffe1bc8        0x0 ./RTD/src/Power_Ip_RCM_Irq.o
 .data          0x1ffe1bc8        0x0 ./RTD/src/Power_Ip_SIM.o
 .data          0x1ffe1bc8        0x0 ./RTD/src/Power_Ip_SMC.o
 .data          0x1ffe1bc8        0x0 ./RTD/src/Pwm.o
 .data          0x1ffe1bc8        0x0 ./RTD/src/Pwm_Ipw.o
 .data          0x1ffe1bc8        0x0 ./RTD/src/Pwm_Ipw_Notif.o
 .data          0x1ffe1bc8        0x0 ./RTD/src/Qspi_Ip.o
 .data          0x1ffe1bc8        0x0 ./RTD/src/Qspi_Ip_Controller.o
 .data          0x1ffe1bc8        0x0 ./RTD/src/Qspi_Ip_Sfdp.o
 .data          0x1ffe1bc8        0x0 ./RTD/src/Ram_Ip.o
 .data          0x1ffe1bc8        0x0 ./RTD/src/SRtc_Ip.o
 .data          0x1ffe1bc8        0x0 ./RTD/src/SchM_Can.o
 .data          0x1ffe1bc8        0x0 ./RTD/src/SchM_Crc.o
 .data          0x1ffe1bc8        0x0 ./RTD/src/SchM_Crypto.o
 .data          0x1ffe1bc8        0x0 ./RTD/src/SchM_Dio.o
 .data          0x1ffe1bc8        0x0 ./RTD/src/SchM_Fls.o
 .data          0x1ffe1bc8        0x0 ./RTD/src/SchM_Gpt.o
 .data          0x1ffe1bc8        0x0 ./RTD/src/SchM_Icu.o
 .data          0x1ffe1bc8        0x0 ./RTD/src/SchM_Mcl.o
 .data          0x1ffe1bc8        0x0 ./RTD/src/SchM_Mcu.o
 .data          0x1ffe1bc8        0x0 ./RTD/src/SchM_Port.o
 .data          0x1ffe1bc8        0x0 ./RTD/src/SchM_Pwm.o
 .data          0x1ffe1bc8        0x0 ./RTD/src/SchM_Rm.o
 .data          0x1ffe1bc8        0x0 ./RTD/src/SchM_Spi.o
 .data          0x1ffe1bc8        0x0 ./RTD/src/SchM_Wdg.o
 .data          0x1ffe1bc8        0x0 ./RTD/src/Spi.o
 .data          0x1ffe1bc8        0x0 ./RTD/src/Spi_Ipw.o
 .data          0x1ffe1bc8        0x0 ./RTD/src/System_Ip.o
 .data          0x1ffe1bc8        0x0 ./RTD/src/Trgmux_Ip.o
 .data          0x1ffe1bc8        0x0 ./RTD/src/Trgmux_Ip_HwAcc.o
 .data          0x1ffe1bc8        0x0 ./RTD/src/WdgIf.o
 .data          0x1ffe1bc8        0x0 ./RTD/src/Wdg_43_Instance0.o
 .data          0x1ffe1bc8        0x0 ./RTD/src/Wdg_Channel.o
 .data          0x1ffe1bc8        0x0 ./RTD/src/Wdg_Ipw.o
 .data          0x1ffe1bc8        0x0 ./RTD/src/Wdg_Ipw_Irq.o
 .data          0x1ffe1bc8        0x0 ./RTD/src/Wdog_Ip.o
 .data          0x1ffe1bc8        0x0 ./SCHeduler/SCH.o
 .data          0x1ffe1bc8      0xd20 ./board/Port_Ci_Port_Ip_Cfg.o
                0x1ffe1bc8                g_pin_mux_InitConfigArr0
 .data          0x1ffe28e8        0x0 ./generate/IntCtrl_Ip/IntCtrl_Ip_Cfg.o
 .data          0x1ffe28e8        0x0 ./generate/src/CDD_Mcl_Cfg.o
 .data          0x1ffe28e8        0x0 ./generate/src/CDD_Mcl_Init_PBcfg.o
 .data          0x1ffe28e8        0x0 ./generate/src/CDD_Rm_Cfg.o
 .data          0x1ffe28e8        0x0 ./generate/src/CDD_Rm_Init_PBcfg.o
 .data          0x1ffe28e8        0x0 ./generate/src/CDD_Rm_Ipw_Init_PBcfg.o
 .data          0x1ffe28e8        0x0 ./generate/src/Can_Init_PBcfg.o
 .data          0x1ffe28e8        0x0 ./generate/src/Can_Ipw_Init_PBcfg.o
 .data          0x1ffe28e8        0x0 ./generate/src/Clock_Ip_Cfg.o
 .data          0x1ffe28e8        0x0 ./generate/src/Clock_Ip_Init_PBcfg.o
 .data          0x1ffe28e8        0x0 ./generate/src/Cmp_Ip_Init_PBcfg.o
 .data          0x1ffe28e8        0x0 ./generate/src/Crc_Cfg.o
 .data          0x1ffe28e8        0x0 ./generate/src/Crc_Ip_Cfg.o
 .data          0x1ffe28e8        0x0 ./generate/src/Crypto_Cfg.o
 .data          0x1ffe28e8        0x0 ./generate/src/Dio_Cfg.o
 .data          0x1ffe28e8        0x0 ./generate/src/Dma_Ip_Cfg.o
 .data          0x1ffe28e8        0x0 ./generate/src/Dma_Ip_Init_PBcfg.o
 .data          0x1ffe28e8        0x0 ./generate/src/FlexCAN_Ip_Init_PBcfg.o
 .data          0x1ffe28e8        0x0 ./generate/src/Flexio_Mcl_Ip_Init_PBcfg.o
 .data          0x1ffe28e8        0x0 ./generate/src/Flexio_Pwm_Ip_Init_PBcfg.o
 .data          0x1ffe28e8        0x0 ./generate/src/Flexio_Spi_Ip_Init_PBcfg.o
 .data          0x1ffe28e8        0x0 ./generate/src/Fls_Cfg.o
 .data          0x1ffe28e8        0x0 ./generate/src/Fls_Init_PBcfg.o
 .data          0x1ffe28e8        0x0 ./generate/src/Ftfc_Fls_Ip_Init_PBcfg.o
 .data          0x1ffe28e8        0x0 ./generate/src/Ftm_Gpt_Ip_Init_PBcfg.o
 .data          0x1ffe28e8        0x0 ./generate/src/Ftm_Icu_Ip_Init_PBcfg.o
 .data          0x1ffe28e8        0x0 ./generate/src/Ftm_Pwm_Ip_Init_PBcfg.o
 .data          0x1ffe28e8        0x0 ./generate/src/Gpt_Cfg.o
 .data          0x1ffe28e8        0x0 ./generate/src/Gpt_Init_PBcfg.o
 .data          0x1ffe28e8       0x40 ./generate/src/Gpt_Ipw_Init_PBcfg.o
                0x1ffe28e8                Gpt_Ipw_ChannelConfig_PB_Init
                0x1ffe2918                Gpt_Ipw_HwInstanceConfig_PB_Init
 .data          0x1ffe2928        0x0 ./generate/src/Icu_Cfg.o
 .data          0x1ffe2928        0x0 ./generate/src/Icu_DmaNotification.o
 .data          0x1ffe2928        0x0 ./generate/src/Icu_Init_PBcfg.o
 .data          0x1ffe2928        0x0 ./generate/src/Icu_Ipw_Init_PBcfg.o
 .data          0x1ffe2928        0x0 ./generate/src/LPit_Gpt_Ip_Init_PBcfg.o
 .data          0x1ffe2928        0x0 ./generate/src/Lpit_Icu_Ip_Init_PBcfg.o
 .data          0x1ffe2928        0x0 ./generate/src/Lpspi_Ip_Init_PBcfg.o
 .data          0x1ffe2928        0x0 ./generate/src/Lptmr_Gpt_Ip_Init_PBcfg.o
 .data          0x1ffe2928        0x0 ./generate/src/Lptmr_Icu_Ip_Init_PBcfg.o
 .data          0x1ffe2928        0x0 ./generate/src/Mcu_Cfg.o
 .data          0x1ffe2928        0x0 ./generate/src/Mcu_Init_PBcfg.o
 .data          0x1ffe2928        0x0 ./generate/src/Mpu_Ip_Init_PBcfg.o
 .data          0x1ffe2928        0x0 ./generate/src/OsIf_Cfg.o
 .data          0x1ffe2928        0x0 ./generate/src/Platform_Cfg.o
 .data          0x1ffe2928        0x0 ./generate/src/Platform_Ipw_Cfg.o
 .data          0x1ffe2928        0x0 ./generate/src/Port_Cfg.o
 .data          0x1ffe2928        0x0 ./generate/src/Port_Ci_Icu_Ip_Init_PBcfg.o
 .data          0x1ffe2928        0x0 ./generate/src/Port_Ci_Port_Ip_Init_PBcfg.o
 .data          0x1ffe2928        0x0 ./generate/src/Port_Init_PBcfg.o
 .data          0x1ffe2928        0x0 ./generate/src/Power_Ip_Cfg.o
 .data          0x1ffe2928        0x0 ./generate/src/Power_Ip_Init_PBcfg.o
 .data          0x1ffe2928        0x0 ./generate/src/Pwm_Init_PBcfg.o
 .data          0x1ffe2928        0x0 ./generate/src/Qspi_Ip_Init_PBcfg.o
 .data          0x1ffe2928        0x0 ./generate/src/Ram_Ip_Cfg.o
 .data          0x1ffe2928        0x0 ./generate/src/Ram_Ip_Init_PBcfg.o
 .data          0x1ffe2928        0x0 ./generate/src/SRtc_Ip_Init_PBcfg.o
 .data          0x1ffe2928        0x0 ./generate/src/Spi_Init_PBcfg.o
 .data          0x1ffe2928        0x0 ./generate/src/Spi_Ipw_Init_PBcfg.o
 .data          0x1ffe2928        0x0 ./generate/src/Trgmux_Ip_Cfg.o
 .data          0x1ffe2928        0x0 ./generate/src/Trgmux_Ip_Init_PBcfg.o
 .data          0x1ffe2928        0x0 ./generate/src/Wdg_43_Instance0_Cfg.o
 .data          0x1ffe2928        0x0 ./generate/src/Wdg_43_Instance0_Init_PBcfg.o
 .data          0x1ffe2928        0x0 ./generate/src/Wdg_43_Instance0_Ipw_Init_PBcfg.o
 .data          0x1ffe2928        0x0 ./generate/src/Wdg_CfgExt.o
 .data          0x1ffe2928        0x0 ./generate/src/Wdog_Ip_Init_PBcfg.o
 .data          0x1ffe2928        0x0 ./src/main.o
 .data          0x1ffe2928        0x0 C:/NXP/S32DS.3.4/S32DS/build_tools/gcc_v9.2/gcc-9.2-arm32-eabi/arm-none-eabi/newlib/lib/thumb/v7e-m+fp/hard\libc_nano.a(lib_a-memcpy-stub.o)
 *(.data*)
                0x1ffe2928                . = ALIGN (0x4)
 *(.mcal_data)
 .mcal_data     0x1ffe2928        0x4 ./RTD/src/Clock_Ip.o
 .mcal_data     0x1ffe292c       0x24 ./RTD/src/Clock_Ip_Frequency.o
 .mcal_data     0x1ffe2950       0x10 ./RTD/src/Ftfc_Fls_Ip.o
 .mcal_data     0x1ffe2960       0x14 ./RTD/src/Gpio_Dio_Ip.o
                0x1ffe2960                GpioBaseAdresses
 .mcal_data     0x1ffe2974        0x4 ./RTD/src/Mcu.o
 .mcal_data     0x1ffe2978        0x4 ./RTD/src/Power_Ip.o
                0x1ffe2978                Power_Ip_pfReportErrorsCallback
 .mcal_data     0x1ffe297c       0x54 ./RTD/src/Pwm.o
 .mcal_data     0x1ffe29d0        0x8 ./RTD/src/Wdg_Channel.o
 .mcal_data     0x1ffe29d8        0x8 ./RTD/src/Wdg_Ipw.o
 *fill*         0x1ffe29e0        0x0 
 .mcal_data     0x1ffe29e0       0x30 ./generate/src/Crc_Ip_Cfg.o
                0x1ffe2a10                . = ALIGN (0x4)
 *(.mcal_data_no_cacheable)
 .mcal_data_no_cacheable
                0x1ffe2a10        0x8 ./generate/src/Dma_Ip_Init_PBcfg.o
                0x1ffe2a10                Dma_Ip_paxHwChannelStateArrayPB_INIT
 .mcal_data_no_cacheable
                0x1ffe2a18       0x10 ./generate/src/Lpspi_Ip_Init_PBcfg.o
                0x1ffe2a28                . = ALIGN (0x4)
                0x1ffe2a28                __data_ram_end = .
                0x000a5a20                __DATA_ROM_END = (__DATA_ROM + (__data_ram_end - __data_ram_start))

.sram_bss       0x1ffe2a28     0x4b98 load address 0x000a5a20
                0x1ffe2a30                . = ALIGN (0x10)
 *fill*         0x1ffe2a28        0x8 
                0x1ffe2a30                __sram_bss_start = .
 *(.bss)
 .bss           0x1ffe2a30        0x0 ./INI/INI.o
 .bss           0x1ffe2a30        0x0 ./Middlewares/CAN/CBUctrl.o
 .bss           0x1ffe2a30        0x8 ./Middlewares/CAN/CBUinter.o
 .bss           0x1ffe2a38        0x0 ./Middlewares/CAN/CBUmaint.o
 .bss           0x1ffe2a38      0xde8 ./Middlewares/CAN/CBUs.o
                0x1ffe2a38                CBU_flags
                0x1ffe2a3c                CBU_framesStatus
                0x1ffe381c                CBU_Address
                0x1ffe381e                CBU_powerCoreAdd
 .bss           0x1ffe3820       0x1c ./Middlewares/FLA/FLA.o
                0x1ffe3820                FLA_Initialized
 .bss           0x1ffe383c       0x14 ./Middlewares/SPC/SPC.o
                0x1ffe3840                Spc_returnMeasures
 .bss           0x1ffe3850        0x3 ./Middlewares/WDO_Management/WDO.o
                0x1ffe3850                WDO_ExternalStateFlag
                0x1ffe3851                WDO_WindowCounter
                0x1ffe3852                WDO_InternalStateFlag
 *fill*         0x1ffe3853        0x1 
 .bss           0x1ffe3854       0x2d ./Modules/ACTivity_Management/ACT.o
                0x1ffe3854                ACT_readyForLowPower
                0x1ffe3858                ACT_errors
                0x1ffe3880                ACT_ServicePowerSupplyLost
 *fill*         0x1ffe3881        0x3 
 .bss           0x1ffe3884       0x28 ./Modules/ACTivity_Management/ACTupdat.o
 .bss           0x1ffe38ac       0xbc ./Modules/CNV/CNV.o
                0x1ffe38ac                CNV_powercoreUnitTable
                0x1ffe395c                CNV_buckType
                0x1ffe3960                CNV_flags
 .bss           0x1ffe3968      0x128 ./Modules/COM_Management/COM.o
                0x1ffe3968                COM_txPeriodControl
                0x1ffe3984                COM_txPeriodInternal
                0x1ffe39a0                COM_errorMasks
                0x1ffe39a8                COM_txDelayCounterControl
                0x1ffe39c4                COM_txDelayCounterInternal
                0x1ffe39e0                COM_flags
                0x1ffe39e8                COM_mode
                0x1ffe39fc                COM_paramReq
                0x1ffe3a04                COM_debugTestReq
                0x1ffe3a20                COM_powerMeasures
                0x1ffe3a34                COM_tempMeasures
                0x1ffe3a3c                COM_controlStatusInfo
                0x1ffe3a5c                COM_pbitResultsInfo
                0x1ffe3a70                COM_Address
                0x1ffe3a74                COM_internalComLostCounter
                0x1ffe3a78                COM_controlComLostCounter
                0x1ffe3a7c                COM_errorsAndWarnings
 .bss           0x1ffe3a90        0x0 ./Modules/COM_Management/COMrx.o
 .bss           0x1ffe3a90        0x0 ./Modules/COM_Management/COMtx.o
 .bss           0x1ffe3a90       0x18 ./Modules/CTB/CTB.o
                0x1ffe3a90                CTB_dsiState
                0x1ffe3a92                CTB_Flags
                0x1ffe3a99                CTB_dsoState
 .bss           0x1ffe3aa8        0x1 ./Modules/CTB/CTBCbit.o
                0x1ffe3aa8                ctb_DSO_readResult
 *fill*         0x1ffe3aa9        0x3 
 .bss           0x1ffe3aac       0x1c ./Modules/CTB/CTBPbit.o
                0x1ffe3aac                dsi1_edgeCounter
                0x1ffe3ab0                dsi2_edgeCounter
                0x1ffe3ab4                dsi3_edgeCounter
                0x1ffe3ab8                dsi4_edgeCounter
                0x1ffe3abc                dsi5_edgeCounter
                0x1ffe3ac0                dsi6_edgeCounter
                0x1ffe3ac4                CTBPbit_Started
                0x1ffe3ac5                CTBPbit_TimePeriodEnded
                0x1ffe3ac6                ctb_DSI_readResult
                0x1ffe3ac7                ctb_DSI_TestResult
 .bss           0x1ffe3ac8        0x0 ./Modules/CTB/CTBio.o
 .bss           0x1ffe3ac8        0x2 ./Modules/DBG/DBG.o
                0x1ffe3ac8                DBG_Flags
 *fill*         0x1ffe3aca        0x2 
 .bss           0x1ffe3acc        0x5 ./Modules/FSM/FSM.o
                0x1ffe3acc                FSM_mode
                0x1ffe3ad0                FSM_errors
 *fill*         0x1ffe3ad1        0x3 
 .bss           0x1ffe3ad4        0x4 ./Modules/FSM/FSMupdat.o
 .bss           0x1ffe3ad8        0x8 ./Modules/MPM/MPM.o
                0x1ffe3ad8                MPM_lowVoltageFlag
                0x1ffe3adc                MPM_flags
 .bss           0x1ffe3ae0      0x470 ./Modules/PARameters_Management/PAR.o
                0x1ffe3ae0                PAR_paramReq
                0x1ffe3af0                PAR_flags
                0x1ffe3af8                PAR_currentFlashPartition
                0x1ffe3afc                PAR_ParamValues
                0x1ffe3f04                PAR_writeAtInit
                0x1ffe3f05                PAR_flashUpToDate
                0x1ffe3f06                PAR_FpgaParamUpdatePending
                0x1ffe3f4c                PAR_right
 .bss           0x1ffe3f50        0x0 ./Modules/PARameters_Management/PARcheck.o
 .bss           0x1ffe3f50        0x0 ./Modules/PARameters_Management/PARconfig.o
 .bss           0x1ffe3f50        0x0 ./Modules/PARameters_Management/PARupdat.o
 .bss           0x1ffe3f50      0x230 ./Modules/PWB/PWB.o
                0x1ffe3f50                PWB_Flags
                0x1ffe3f58                PWB_measures
                0x1ffe3f78                PWB_relayCurrentCmd
                0x1ffe3f79                PWB_relayCurrentState
                0x1ffe3f7a                PWB_numberAvailableCOMETi
 .bss           0x1ffe4180        0x9 ./Modules/PWB/PWBCbit.o
                0x1ffe4180                PWBCbit_cmdResults
                0x1ffe4188                PWB_psValidState
 .bss           0x1ffe4189        0x0 ./Modules/PWB/PWBPbit.o
 .bss           0x1ffe4189        0x1 ./Modules/PWB/PWBio.o
                0x1ffe4189                PWBio_cmdResults
 .bss           0x1ffe418a        0x0 ./Project_Settings/Startup_Code/Vector_Table.o
 .bss           0x1ffe418a        0x0 ./Project_Settings/Startup_Code/exceptions.o
 .bss           0x1ffe418a        0x0 ./Project_Settings/Startup_Code/nvic.o
 .bss           0x1ffe418a        0x0 ./Project_Settings/Startup_Code/startup.o
 .bss           0x1ffe418a        0x0 ./Project_Settings/Startup_Code/startup_cm4.o
 *fill*         0x1ffe418a        0x2 
 .bss           0x1ffe418c        0x4 ./Project_Settings/Startup_Code/system.o
                0x1ffe418c                RESET_CATCH_CORE
 .bss           0x1ffe4190        0x0 ./RTD/src/CDD_Crc.o
 .bss           0x1ffe4190        0x0 ./RTD/src/CDD_Mcl.o
 .bss           0x1ffe4190        0x0 ./RTD/src/CDD_Mcl_Ipw.o
 .bss           0x1ffe4190        0x0 ./RTD/src/CDD_Rm.o
 .bss           0x1ffe4190        0x0 ./RTD/src/CDD_Rm_Ipw.o
 .bss           0x1ffe4190        0x0 ./RTD/src/Can.o
 .bss           0x1ffe4190       0x10 ./RTD/src/Can_Ipw.o
 .bss           0x1ffe41a0        0x0 ./RTD/src/Can_Irq.o
 .bss           0x1ffe41a0        0x1 ./RTD/src/Clock_Ip.o
 .bss           0x1ffe41a1        0x0 ./RTD/src/Clock_Ip_Data.o
 .bss           0x1ffe41a1        0x0 ./RTD/src/Clock_Ip_Divider.o
 .bss           0x1ffe41a1        0x0 ./RTD/src/Clock_Ip_DividerTrigger.o
 .bss           0x1ffe41a1        0x0 ./RTD/src/Clock_Ip_ExtOsc.o
 .bss           0x1ffe41a1        0x0 ./RTD/src/Clock_Ip_FracDiv.o
 .bss           0x1ffe41a1        0x0 ./RTD/src/Clock_Ip_Frequency.o
 .bss           0x1ffe41a1        0x0 ./RTD/src/Clock_Ip_Gate.o
 .bss           0x1ffe41a1        0x0 ./RTD/src/Clock_Ip_IntOsc.o
 .bss           0x1ffe41a1        0x0 ./RTD/src/Clock_Ip_Irq.o
 .bss           0x1ffe41a1        0x0 ./RTD/src/Clock_Ip_Monitor.o
 .bss           0x1ffe41a1        0x0 ./RTD/src/Clock_Ip_Pll.o
 .bss           0x1ffe41a1        0x0 ./RTD/src/Clock_Ip_ProgFreqSwitch.o
 .bss           0x1ffe41a1        0x0 ./RTD/src/Clock_Ip_Selector.o
 *fill*         0x1ffe41a1        0x3 
 .bss           0x1ffe41a4       0xc9 ./RTD/src/Clock_Ip_Specific.o
 .bss           0x1ffe426d        0x0 ./RTD/src/Cmp_Ip.o
 .bss           0x1ffe426d        0x0 ./RTD/src/Crc_Ip.o
 .bss           0x1ffe426d        0x0 ./RTD/src/Crc_Ip_Hardware.o
 .bss           0x1ffe426d        0x0 ./RTD/src/Crc_Ip_Lookup_Tables.o
 .bss           0x1ffe426d        0x0 ./RTD/src/Crc_Ip_Software.o
 .bss           0x1ffe426d        0x0 ./RTD/src/CryIf.o
 .bss           0x1ffe426d        0x0 ./RTD/src/Crypto.o
 .bss           0x1ffe426d        0x0 ./RTD/src/Crypto_ASRExtension.o
 .bss           0x1ffe426d        0x0 ./RTD/src/Crypto_Ipw.o
 .bss           0x1ffe426d        0x0 ./RTD/src/Crypto_KeyManagement.o
 .bss           0x1ffe426d        0x0 ./RTD/src/Crypto_Util.o
 .bss           0x1ffe426d        0x0 ./RTD/src/Csec_Ip.o
 .bss           0x1ffe426d        0x0 ./RTD/src/Csec_Ip_Irq.o
 .bss           0x1ffe426d        0x0 ./RTD/src/Det.o
 .bss           0x1ffe426d        0x0 ./RTD/src/Det_stub.o
 .bss           0x1ffe426d        0x0 ./RTD/src/Dio.o
 .bss           0x1ffe426d        0x0 ./RTD/src/Dio_Ipw.o
 .bss           0x1ffe426d        0x0 ./RTD/src/Dma_Ip.o
 .bss           0x1ffe426d        0x0 ./RTD/src/Dma_Ip_Driver_State.o
 .bss           0x1ffe426d        0x0 ./RTD/src/Dma_Ip_Hw_Access.o
 .bss           0x1ffe426d        0x0 ./RTD/src/Dma_Ip_Irq.o
 .bss           0x1ffe426d        0x0 ./RTD/src/Dma_Ip_Multicore.o
 .bss           0x1ffe426d        0x0 ./RTD/src/EcuM.o
 .bss           0x1ffe426d        0x0 ./RTD/src/FlexCAN_Ip.o
 .bss           0x1ffe426d        0x0 ./RTD/src/FlexCAN_Ip_HwAccess.o
 .bss           0x1ffe426d        0x0 ./RTD/src/FlexCAN_Ip_Irq.o
 .bss           0x1ffe426d        0x0 ./RTD/src/Flexio_Mcl_Ip.o
 .bss           0x1ffe426d        0x0 ./RTD/src/Flexio_Mcl_Ip_HwAccess.o
 .bss           0x1ffe426d        0x0 ./RTD/src/Flexio_Mcl_Ip_Irq.o
 .bss           0x1ffe426d        0x0 ./RTD/src/Flexio_Pwm_Ip.o
 .bss           0x1ffe426d        0x0 ./RTD/src/Flexio_Pwm_Ip_Irq.o
 .bss           0x1ffe426d        0x0 ./RTD/src/Flexio_Spi_Ip.o
 .bss           0x1ffe426d        0x0 ./RTD/src/Flexio_Spi_Ip_Irq.o
 .bss           0x1ffe426d        0x0 ./RTD/src/Fls.o
 .bss           0x1ffe426d        0x0 ./RTD/src/Fls_IPW.o
 .bss           0x1ffe426d        0x0 ./RTD/src/Ftfc_Fls_Ip.o
 .bss           0x1ffe426d        0x0 ./RTD/src/Ftfc_Fls_Ip_Ac.o
 .bss           0x1ffe426d        0x0 ./RTD/src/Ftm_Gpt_Ip.o
 .bss           0x1ffe426d        0x0 ./RTD/src/Ftm_Icu_Ip.o
 .bss           0x1ffe426d        0x0 ./RTD/src/Ftm_Icu_Ip_Irq.o
 .bss           0x1ffe426d        0x0 ./RTD/src/Ftm_Mcl_Ip.o
 .bss           0x1ffe426d        0x0 ./RTD/src/Ftm_Pwm_Ip.o
 .bss           0x1ffe426d        0x0 ./RTD/src/Ftm_Pwm_Ip_Irq.o
 .bss           0x1ffe426d        0x0 ./RTD/src/Gpio_Dio_Ip.o
 *fill*         0x1ffe426d        0x3 
 .bss           0x1ffe4270       0x10 ./RTD/src/Gpt.o
 .bss           0x1ffe4280        0x0 ./RTD/src/Gpt_Ipw.o
 .bss           0x1ffe4280        0x0 ./RTD/src/Icu.o
 .bss           0x1ffe4280        0x0 ./RTD/src/Icu_Ipw.o
 .bss           0x1ffe4280        0x0 ./RTD/src/IntCtrl_Ip.o
 .bss           0x1ffe4280       0x40 ./RTD/src/LPit_Gpt_Ip.o
 .bss           0x1ffe42c0        0x0 ./RTD/src/Lpit_Icu_Ip.o
 .bss           0x1ffe42c0        0x0 ./RTD/src/Lpit_Icu_Ip_Irq.o
 .bss           0x1ffe42c0        0x0 ./RTD/src/Lpspi_Ip.o
 .bss           0x1ffe42c0        0x0 ./RTD/src/Lpspi_Ip_Irq.o
 .bss           0x1ffe42c0        0x0 ./RTD/src/Lptmr_Gpt_Ip.o
 .bss           0x1ffe42c0        0x0 ./RTD/src/Lptmr_Icu_Ip.o
 .bss           0x1ffe42c0        0x0 ./RTD/src/Lptmr_Icu_Ip_Irq.o
 .bss           0x1ffe42c0        0x0 ./RTD/src/Mcu.o
 .bss           0x1ffe42c0        0x0 ./RTD/src/Mcu_Dem_Wrapper.o
 .bss           0x1ffe42c0        0x0 ./RTD/src/Mcu_Ipw.o
 .bss           0x1ffe42c0        0x0 ./RTD/src/Mcu_Ipw_Irq.o
 .bss           0x1ffe42c0        0x0 ./RTD/src/Mpu_Ip.o
 .bss           0x1ffe42c0        0x0 ./RTD/src/OsIf_Interrupts.o
 .bss           0x1ffe42c0        0x0 ./RTD/src/OsIf_Timer.o
 .bss           0x1ffe42c0        0x0 ./RTD/src/OsIf_Timer_System.o
 .bss           0x1ffe42c0        0x0 ./RTD/src/OsIf_Timer_System_Internal_Systick.o
 .bss           0x1ffe42c0        0x0 ./RTD/src/Os_counter_api.o
 .bss           0x1ffe42c0        0x0 ./RTD/src/Os_multicore.o
 .bss           0x1ffe42c0        0x0 ./RTD/src/Platform.o
 .bss           0x1ffe42c0        0x0 ./RTD/src/Platform_Ipw.o
 .bss           0x1ffe42c0        0x0 ./RTD/src/Port.o
 .bss           0x1ffe42c0        0x0 ./RTD/src/Port_Ci_Icu_Ip.o
 .bss           0x1ffe42c0        0x0 ./RTD/src/Port_Ci_Icu_Ip_Irq.o
 .bss           0x1ffe42c0        0x0 ./RTD/src/Port_Ci_Port_Ip.o
 .bss           0x1ffe42c0        0x0 ./RTD/src/Port_Ipw.o
 .bss           0x1ffe42c0        0x0 ./RTD/src/Power_Ip.o
 .bss           0x1ffe42c0        0x0 ./RTD/src/Power_Ip_CortexM4.o
 .bss           0x1ffe42c0        0x0 ./RTD/src/Power_Ip_PMC.o
 .bss           0x1ffe42c0        0x0 ./RTD/src/Power_Ip_PMC_Irq.o
 .bss           0x1ffe42c0        0x0 ./RTD/src/Power_Ip_Private.o
 .bss           0x1ffe42c0        0x0 ./RTD/src/Power_Ip_RCM.o
 .bss           0x1ffe42c0        0x0 ./RTD/src/Power_Ip_RCM_Irq.o
 .bss           0x1ffe42c0        0x0 ./RTD/src/Power_Ip_SIM.o
 .bss           0x1ffe42c0        0x0 ./RTD/src/Power_Ip_SMC.o
 .bss           0x1ffe42c0        0x0 ./RTD/src/Pwm.o
 .bss           0x1ffe42c0        0x0 ./RTD/src/Pwm_Ipw.o
 .bss           0x1ffe42c0        0x0 ./RTD/src/Pwm_Ipw_Notif.o
 .bss           0x1ffe42c0        0x0 ./RTD/src/Qspi_Ip.o
 .bss           0x1ffe42c0        0x0 ./RTD/src/Qspi_Ip_Controller.o
 .bss           0x1ffe42c0        0x0 ./RTD/src/Qspi_Ip_Sfdp.o
 .bss           0x1ffe42c0        0x0 ./RTD/src/Ram_Ip.o
 .bss           0x1ffe42c0        0x0 ./RTD/src/SRtc_Ip.o
 .bss           0x1ffe42c0        0x0 ./RTD/src/SchM_Can.o
 .bss           0x1ffe42c0        0x0 ./RTD/src/SchM_Crc.o
 .bss           0x1ffe42c0        0x0 ./RTD/src/SchM_Crypto.o
 .bss           0x1ffe42c0        0x0 ./RTD/src/SchM_Dio.o
 .bss           0x1ffe42c0        0x0 ./RTD/src/SchM_Fls.o
 .bss           0x1ffe42c0        0x0 ./RTD/src/SchM_Gpt.o
 .bss           0x1ffe42c0        0x0 ./RTD/src/SchM_Icu.o
 .bss           0x1ffe42c0        0x0 ./RTD/src/SchM_Mcl.o
 .bss           0x1ffe42c0        0x0 ./RTD/src/SchM_Mcu.o
 .bss           0x1ffe42c0        0x0 ./RTD/src/SchM_Port.o
 .bss           0x1ffe42c0        0x0 ./RTD/src/SchM_Pwm.o
 .bss           0x1ffe42c0        0x0 ./RTD/src/SchM_Rm.o
 .bss           0x1ffe42c0        0x0 ./RTD/src/SchM_Spi.o
 .bss           0x1ffe42c0        0x0 ./RTD/src/SchM_Wdg.o
 .bss           0x1ffe42c0        0x0 ./RTD/src/Spi.o
 .bss           0x1ffe42c0        0x0 ./RTD/src/Spi_Ipw.o
 .bss           0x1ffe42c0        0x0 ./RTD/src/System_Ip.o
 .bss           0x1ffe42c0        0x0 ./RTD/src/Trgmux_Ip.o
 .bss           0x1ffe42c0        0x0 ./RTD/src/Trgmux_Ip_HwAcc.o
 .bss           0x1ffe42c0        0x0 ./RTD/src/WdgIf.o
 .bss           0x1ffe42c0        0x0 ./RTD/src/Wdg_43_Instance0.o
 .bss           0x1ffe42c0        0x0 ./RTD/src/Wdg_Channel.o
 .bss           0x1ffe42c0        0x0 ./RTD/src/Wdg_Ipw.o
 .bss           0x1ffe42c0        0x0 ./RTD/src/Wdg_Ipw_Irq.o
 .bss           0x1ffe42c0        0x0 ./RTD/src/Wdog_Ip.o
 .bss           0x1ffe42c0       0x30 ./SCHeduler/SCH.o
                0x1ffe42c0                SCH_MinLoad
                0x1ffe42c1                SCH_MaxLoad
                0x1ffe42c2                SCH_AverageLoad
                0x1ffe42ec                sch_mainLoopElapsedTimeUs
 .bss           0x1ffe42f0        0x0 ./board/Port_Ci_Port_Ip_Cfg.o
 .bss           0x1ffe42f0        0x0 ./generate/IntCtrl_Ip/IntCtrl_Ip_Cfg.o
 .bss           0x1ffe42f0        0x0 ./generate/src/CDD_Mcl_Cfg.o
 .bss           0x1ffe42f0        0x0 ./generate/src/CDD_Mcl_Init_PBcfg.o
 .bss           0x1ffe42f0        0x0 ./generate/src/CDD_Rm_Cfg.o
 .bss           0x1ffe42f0        0x0 ./generate/src/CDD_Rm_Init_PBcfg.o
 .bss           0x1ffe42f0        0x0 ./generate/src/CDD_Rm_Ipw_Init_PBcfg.o
 .bss           0x1ffe42f0        0x0 ./generate/src/Can_Init_PBcfg.o
 .bss           0x1ffe42f0        0x0 ./generate/src/Can_Ipw_Init_PBcfg.o
 .bss           0x1ffe42f0        0x0 ./generate/src/Clock_Ip_Cfg.o
 .bss           0x1ffe42f0        0x0 ./generate/src/Clock_Ip_Init_PBcfg.o
 .bss           0x1ffe42f0        0x0 ./generate/src/Cmp_Ip_Init_PBcfg.o
 .bss           0x1ffe42f0        0x0 ./generate/src/Crc_Cfg.o
 .bss           0x1ffe42f0        0x0 ./generate/src/Crc_Ip_Cfg.o
 .bss           0x1ffe42f0        0x0 ./generate/src/Crypto_Cfg.o
 .bss           0x1ffe42f0        0x0 ./generate/src/Dio_Cfg.o
 .bss           0x1ffe42f0        0x0 ./generate/src/Dma_Ip_Cfg.o
 .bss           0x1ffe42f0        0x0 ./generate/src/Dma_Ip_Init_PBcfg.o
 .bss           0x1ffe42f0        0x0 ./generate/src/FlexCAN_Ip_Init_PBcfg.o
 .bss           0x1ffe42f0        0x0 ./generate/src/Flexio_Mcl_Ip_Init_PBcfg.o
 .bss           0x1ffe42f0        0x0 ./generate/src/Flexio_Pwm_Ip_Init_PBcfg.o
 .bss           0x1ffe42f0        0x0 ./generate/src/Flexio_Spi_Ip_Init_PBcfg.o
 .bss           0x1ffe42f0        0x0 ./generate/src/Fls_Cfg.o
 .bss           0x1ffe42f0        0x0 ./generate/src/Fls_Init_PBcfg.o
 .bss           0x1ffe42f0        0x0 ./generate/src/Ftfc_Fls_Ip_Init_PBcfg.o
 .bss           0x1ffe42f0        0x0 ./generate/src/Ftm_Gpt_Ip_Init_PBcfg.o
 .bss           0x1ffe42f0        0x0 ./generate/src/Ftm_Icu_Ip_Init_PBcfg.o
 .bss           0x1ffe42f0        0x0 ./generate/src/Ftm_Pwm_Ip_Init_PBcfg.o
 .bss           0x1ffe42f0        0x0 ./generate/src/Gpt_Cfg.o
 .bss           0x1ffe42f0        0x0 ./generate/src/Gpt_Init_PBcfg.o
 .bss           0x1ffe42f0        0x0 ./generate/src/Gpt_Ipw_Init_PBcfg.o
 .bss           0x1ffe42f0        0x0 ./generate/src/Icu_Cfg.o
 .bss           0x1ffe42f0        0x0 ./generate/src/Icu_DmaNotification.o
 .bss           0x1ffe42f0        0x0 ./generate/src/Icu_Init_PBcfg.o
 .bss           0x1ffe42f0        0x0 ./generate/src/Icu_Ipw_Init_PBcfg.o
 .bss           0x1ffe42f0        0x0 ./generate/src/LPit_Gpt_Ip_Init_PBcfg.o
 .bss           0x1ffe42f0        0x0 ./generate/src/Lpit_Icu_Ip_Init_PBcfg.o
 .bss           0x1ffe42f0        0x0 ./generate/src/Lpspi_Ip_Init_PBcfg.o
 .bss           0x1ffe42f0        0x0 ./generate/src/Lptmr_Gpt_Ip_Init_PBcfg.o
 .bss           0x1ffe42f0        0x0 ./generate/src/Lptmr_Icu_Ip_Init_PBcfg.o
 .bss           0x1ffe42f0        0x0 ./generate/src/Mcu_Cfg.o
 .bss           0x1ffe42f0        0x0 ./generate/src/Mcu_Init_PBcfg.o
 .bss           0x1ffe42f0        0x0 ./generate/src/Mpu_Ip_Init_PBcfg.o
 .bss           0x1ffe42f0        0x0 ./generate/src/OsIf_Cfg.o
 .bss           0x1ffe42f0        0x0 ./generate/src/Platform_Cfg.o
 .bss           0x1ffe42f0        0x0 ./generate/src/Platform_Ipw_Cfg.o
 .bss           0x1ffe42f0        0x0 ./generate/src/Port_Cfg.o
 .bss           0x1ffe42f0        0x0 ./generate/src/Port_Ci_Icu_Ip_Init_PBcfg.o
 .bss           0x1ffe42f0        0x0 ./generate/src/Port_Ci_Port_Ip_Init_PBcfg.o
 .bss           0x1ffe42f0        0x0 ./generate/src/Port_Init_PBcfg.o
 .bss           0x1ffe42f0        0x0 ./generate/src/Power_Ip_Cfg.o
 .bss           0x1ffe42f0        0x0 ./generate/src/Power_Ip_Init_PBcfg.o
 .bss           0x1ffe42f0        0x0 ./generate/src/Pwm_Init_PBcfg.o
 .bss           0x1ffe42f0        0x0 ./generate/src/Qspi_Ip_Init_PBcfg.o
 .bss           0x1ffe42f0        0x0 ./generate/src/Ram_Ip_Cfg.o
 .bss           0x1ffe42f0        0x0 ./generate/src/Ram_Ip_Init_PBcfg.o
 .bss           0x1ffe42f0        0x0 ./generate/src/SRtc_Ip_Init_PBcfg.o
 .bss           0x1ffe42f0        0x0 ./generate/src/Spi_Init_PBcfg.o
 .bss           0x1ffe42f0        0x0 ./generate/src/Spi_Ipw_Init_PBcfg.o
 .bss           0x1ffe42f0        0x0 ./generate/src/Trgmux_Ip_Cfg.o
 .bss           0x1ffe42f0        0x0 ./generate/src/Trgmux_Ip_Init_PBcfg.o
 .bss           0x1ffe42f0        0x0 ./generate/src/Wdg_43_Instance0_Cfg.o
 .bss           0x1ffe42f0        0x0 ./generate/src/Wdg_43_Instance0_Init_PBcfg.o
 .bss           0x1ffe42f0        0x0 ./generate/src/Wdg_43_Instance0_Ipw_Init_PBcfg.o
 .bss           0x1ffe42f0        0x0 ./generate/src/Wdg_CfgExt.o
 .bss           0x1ffe42f0        0x0 ./generate/src/Wdog_Ip_Init_PBcfg.o
 .bss           0x1ffe42f0        0x0 ./src/main.o
 .bss           0x1ffe42f0        0x0 C:/NXP/S32DS.3.4/S32DS/build_tools/gcc_v9.2/gcc-9.2-arm32-eabi/arm-none-eabi/newlib/lib/thumb/v7e-m+fp/hard\libc_nano.a(lib_a-memcpy-stub.o)
 *(.bss*)
                0x1ffe42f0                . = ALIGN (0x10)
 *(.mcal_bss)
 .mcal_bss      0x1ffe42f0        0x4 ./RTD/src/CDD_Rm.o
 .mcal_bss      0x1ffe42f4       0x20 ./RTD/src/Can.o
 .mcal_bss      0x1ffe4314      0x7ea ./RTD/src/Can_Ipw.o
 *fill*         0x1ffe4afe        0x2 
 .mcal_bss      0x1ffe4b00        0x8 ./RTD/src/Clock_Ip.o
 .mcal_bss      0x1ffe4b08       0x70 ./RTD/src/Clock_Ip_Specific.o
 .mcal_bss      0x1ffe4b78       0x18 ./RTD/src/Cmp_Ip.o
 .mcal_bss      0x1ffe4b90       0x68 ./RTD/src/Crc_Ip.o
 .mcal_bss      0x1ffe4bf8        0x4 ./RTD/src/Crypto.o
                0x1ffe4bf8                Crypto_aeDriverState
 .mcal_bss      0x1ffe4bfc       0x58 ./RTD/src/Crypto_Ipw.o
 .mcal_bss      0x1ffe4c54        0x4 ./RTD/src/Csec_Ip.o
 .mcal_bss      0x1ffe4c58        0x4 ./RTD/src/EcuM.o
                0x1ffe4c58                EcuMLastWakeupEvent
 .mcal_bss      0x1ffe4c5c        0xc ./RTD/src/FlexCAN_Ip.o
 .mcal_bss      0x1ffe4c68        0xc ./RTD/src/FlexCAN_Ip_HwAccess.o
 .mcal_bss      0x1ffe4c74       0x11 ./RTD/src/Flexio_Pwm_Ip.o
                0x1ffe4c74                Flexio_Pwm_Ip_aState
                0x1ffe4c84                Flexio_Pwm_Ip_u8TimerIrqMask
 *fill*         0x1ffe4c85        0x3 
 .mcal_bss      0x1ffe4c88       0x48 ./RTD/src/Fls.o
                0x1ffe4c90                Fls_bACloaded
                0x1ffe4c94                Fls_u32JobSectorEnd
                0x1ffe4ca8                Fls_u32JobSectorIt
                0x1ffe4cac                Fls_eLLDJob
                0x1ffe4cb4                Fls_u32JobAddrIt
                0x1ffe4cbc                Fls_u32JobAddrEnd
                0x1ffe4cc0                Fls_pConfigPtr
                0x1ffe4cc4                Fls_eLLDJobResult
 .mcal_bss      0x1ffe4cd0       0x24 ./RTD/src/Ftfc_Fls_Ip.o
                0x1ffe4cd4                Ftfc_Fls_Ip_u32CurrentTicks
                0x1ffe4cd8                Ftfc_Fls_Ip_u32ElapsedTicks
                0x1ffe4cdc                Ftfc_Fls_Ip_u32TimeoutTicks
 .mcal_bss      0x1ffe4cf4      0x920 ./RTD/src/Ftm_Icu_Ip.o
                0x1ffe4cf4                Ftm_Icu_Ip_ChState
                0x1ffe55f4                Ftm_Icu_Ip_InsState
 .mcal_bss      0x1ffe5614      0x834 ./RTD/src/Ftm_Pwm_Ip.o
                0x1ffe56b4                Ftm_Pwm_Ip_aPreviousChannelState
                0x1ffe58d4                Ftm_Pwm_Ip_pOverflowIrqCallback
                0x1ffe5914                Ftm_Pwm_Ip_aPeriod
                0x1ffe5a64                Ftm_Pwm_Ip_aChIrqCallbacks
                0x1ffe5c64                Ftm_Pwm_Ip_u8FaultCheck
                0x1ffe5c65                Ftm_Pwm_Ip_aNotifIrq
                0x1ffe5ca8                Ftm_Pwm_Ip_pFaultIrqCallback
                0x1ffe5d48                Ftm_Pwm_Ip_aChannelState
 .mcal_bss      0x1ffe5e48       0x20 ./RTD/src/Gpt.o
                0x1ffe5e54                Gpt_pConfig
 .mcal_bss      0x1ffe5e68       0x10 ./RTD/src/Icu.o
                0x1ffe5e68                Icu_CurrentMode
                0x1ffe5e6c                Icu_aChannelState
                0x1ffe5e74                Icu_pCfgPtr
 .mcal_bss      0x1ffe5e78        0xc ./RTD/src/Lpspi_Ip.o
                0x1ffe5e78                Lpspi_Ip_apxStateStructureArray
 .mcal_bss      0x1ffe5e84       0x14 ./RTD/src/Lptmr_Icu_Ip.o
                0x1ffe5e84                Lptmr_Icu_aChConfig
 .mcal_bss      0x1ffe5e98        0xa ./RTD/src/Mcu.o
 *fill*         0x1ffe5ea2        0x2 
 .mcal_bss      0x1ffe5ea4      0xa20 ./RTD/src/Port_Ci_Icu_Ip.o
                0x1ffe5ec4                Port_Ci_Icu_Ip_u32ChState
 .mcal_bss      0x1ffe68c4       0x14 ./RTD/src/Port_Ipw.o
 .mcal_bss      0x1ffe68d8        0x4 ./RTD/src/Power_Ip_RCM.o
 .mcal_bss      0x1ffe68dc       0x80 ./RTD/src/Pwm_Ipw.o
                0x1ffe68dc                Pwm_Ipw_aFtmDutyCycle
 .mcal_bss      0x1ffe695c       0xec ./RTD/src/Spi.o
                0x1ffe695c                Spi_axSpiChannelState
                0x1ffe69b4                Spi_axSpiHwUnitQueueArray
                0x1ffe6a14                Spi_axSpiJobState
                0x1ffe6a44                Spi_apxSpiConfigPtr
 .mcal_bss      0x1ffe6a48        0x3 ./RTD/src/Spi_Ipw.o
 *fill*         0x1ffe6a4b        0x1 
 .mcal_bss      0x1ffe6a4c       0x10 ./RTD/src/Wdg_Channel.o
 .mcal_bss      0x1ffe6a5c        0x4 ./RTD/src/Wdog_Ip.o
 .mcal_bss      0x1ffe6a60        0x8 ./generate/src/Crypto_Cfg.o
                0x1ffe6a60                Crypto_aObjectQueueList
                0x1ffe6a70                . = ALIGN (0x10)
 *fill*         0x1ffe6a68        0x8 
                0x1ffe6a70                __non_cacheable_bss_start = .
 *(.mcal_bss_no_cacheable)
 .mcal_bss_no_cacheable
                0x1ffe6a70        0x4 ./RTD/src/CDD_Mcl.o
 .mcal_bss_no_cacheable
                0x1ffe6a74       0x96 ./RTD/src/Det.o
                0x1ffe6a74                Det_TransientModuleId
                0x1ffe6a88                Det_ApiId
                0x1ffe6a92                Det_TransientInstanceId
                0x1ffe6a9c                Det_ErrorId
                0x1ffe6aa6                Det_TransientApiId
                0x1ffe6ab0                Det_RuntimeModuleId
                0x1ffe6ac4                Det_TransientFaultId
                0x1ffe6ace                Det_RuntimeInstanceId
                0x1ffe6ad8                Det_RuntimeApiId
                0x1ffe6ae2                Det_ModuleId
                0x1ffe6af6                Det_RuntimeErrorId
                0x1ffe6b00                Det_InstanceId
 *fill*         0x1ffe6b0a        0x2 
 .mcal_bss_no_cacheable
                0x1ffe6b0c        0x4 ./RTD/src/Dma_Ip.o
 .mcal_bss_no_cacheable
                0x1ffe6b10       0x40 ./RTD/src/Dma_Ip_Driver_State.o
 .mcal_bss_no_cacheable
                0x1ffe6b50        0x1 ./RTD/src/Flexio_Mcl_Ip.o
                0x1ffe6b50                Flexio_Ip_baIpIsInitialized
 *fill*         0x1ffe6b51        0x3 
 .mcal_bss_no_cacheable
                0x1ffe6b54       0x70 ./RTD/src/Lpit_Icu_Ip.o
                0x1ffe6b54                channelsState
 .mcal_bss_no_cacheable
                0x1ffe6bc4       0xc4 ./RTD/src/Lpspi_Ip.o
 .mcal_bss_no_cacheable
                0x1ffe6c88        0x4 ./RTD/src/Port.o
 .mcal_bss_no_cacheable
                0x1ffe6c8c       0xa8 ./RTD/src/SchM_Can.o
 .mcal_bss_no_cacheable
                0x1ffe6d34        0x8 ./RTD/src/SchM_Crc.o
 .mcal_bss_no_cacheable
                0x1ffe6d3c       0x40 ./RTD/src/SchM_Crypto.o
 .mcal_bss_no_cacheable
                0x1ffe6d7c       0x10 ./RTD/src/SchM_Dio.o
 .mcal_bss_no_cacheable
                0x1ffe6d8c       0x28 ./RTD/src/SchM_Fls.o
 .mcal_bss_no_cacheable
                0x1ffe6db4      0x188 ./RTD/src/SchM_Gpt.o
 .mcal_bss_no_cacheable
                0x1ffe6f3c      0x158 ./RTD/src/SchM_Icu.o
 .mcal_bss_no_cacheable
                0x1ffe7094      0x178 ./RTD/src/SchM_Mcl.o
 .mcal_bss_no_cacheable
                0x1ffe720c       0x18 ./RTD/src/SchM_Mcu.o
 .mcal_bss_no_cacheable
                0x1ffe7224       0xe0 ./RTD/src/SchM_Port.o
 .mcal_bss_no_cacheable
                0x1ffe7304      0x118 ./RTD/src/SchM_Pwm.o
 .mcal_bss_no_cacheable
                0x1ffe741c       0x68 ./RTD/src/SchM_Rm.o
 .mcal_bss_no_cacheable
                0x1ffe7484       0x98 ./RTD/src/SchM_Spi.o
 .mcal_bss_no_cacheable
                0x1ffe751c       0x78 ./RTD/src/SchM_Wdg.o
 .mcal_bss_no_cacheable
                0x1ffe7594        0x4 ./RTD/src/Trgmux_Ip.o
 .mcal_bss_no_cacheable
                0x1ffe7598       0x18 ./generate/src/Dma_Ip_Init_PBcfg.o
                0x1ffe7598                HwChannel1StatePB_INIT
                0x1ffe75a4                HwChannel0StatePB_INIT
 .mcal_bss_no_cacheable
                0x1ffe75b0       0x10 ./generate/src/Spi_Init_PBcfg.o
                0x1ffe75c0                . = ALIGN (0x4)
                0x1ffe75c0                __non_cacheable_bss_end = .
                0x1ffe75c0                __sram_bss_end = .

.acfls_code_ram
                0x1ffe75c0       0x50 load address 0x000aa5b8
                0x1ffe7610                . = (. + (acfls_code_rom_end - acfls_code_rom_start))
 *fill*         0x1ffe75c0       0x50 

.heap           0x1ffe7610      0x200 load address 0x000aa608
                0x1ffe7610                . = ALIGN (0x4)
                0x1ffe7610                _end = .
                0x1ffe7610                end = .
                0x1ffe7610                _heap_start = .
                0x1ffe7810                . = (. + HEAP_SIZE)
 *fill*         0x1ffe7610      0x200 
                0x1ffe7810                _heap_end = .

int_results     0x1ffe0000      0x100
                0x1ffe0000                . = ALIGN (0x4)
 *(.int_results)
                0x1ffe0100                . = (. + 0x100)
 *fill*         0x1ffe0000      0x100 

.appVersSec     0x00080410        0x4
                0x00080410                . = ALIGN (0x4)
                0x00080410                __app_sw_version_rom_start = .
 *(.AppVers)
                0x00080410                . = ALIGN (0x4)
 .appVersSec    0x00080410        0x4 ./src/main.o
                0x00080410                appVers

.bootVersSec    0x00000410        0x0
                0x00000410                . = ALIGN (0x4)
                0x00000410                __app_boot_version_rom_start = .
 *(.BootVers)
                0x00000410                . = ALIGN (0x4)
                0x2001e000                __Stack_end_c0 = ORIGIN (int_sram_stack_c0)
                0x2001f000                __Stack_start_c0 = (ORIGIN (int_sram_stack_c0) + LENGTH (int_sram_stack_c0))
                0x1ffe0000                __INT_SRAM_START = ORIGIN (int_sram_results)
                0x2001f000                __INT_SRAM_END = ORIGIN (ram_rsvd2)
                0x1ffe1310                __RAM_INIT_START = __data_ram_start
                0x1ffe2a28                __RAM_INIT_END = __data_ram_end
                0x000a4308                __ROM_INIT_START = __DATA_ROM
                0x000a5a20                __ROM_INIT_END = __DATA_ROM_END
                0x1ffe2a30                __BSS_SRAM_START = __sram_bss_start
                0x1ffe75c0                __BSS_SRAM_END = __sram_bss_end
                0x00004b90                __BSS_SRAM_SIZE = (__sram_bss_end - __sram_bss_start)
                0x1ffe1000                __RAM_INTERRUPT_START = __interrupts_ram_start
                0x00080000                __ROM_INTERRUPT_START = __interrupts_rom_start
                0x00080310                __ROM_INTERRUPT_END = __interrupts_rom_end
                0x000a42e0                __INIT_TABLE = __init_table
                0x000a42fc                __ZERO_TABLE = __zero_table
                0x00000001                __RAM_INIT = 0x1
                0x00080410                App_SwVersionRomStart = __app_sw_version_rom_start
                0x00000410                App_BootVersionRomStart = __app_boot_version_rom_start
                0x0009d9a0                Fls_ACEraseRomStart = acfls_code_rom_start
                0x0009d9f0                Fls_ACEraseRomEnd = acfls_code_rom_end
                0x00000050                Fls_ACEraseSize = (acfls_code_rom_end - acfls_code_rom_start)
                0x0009d9a0                Fls_ACWriteRomStart = acfls_code_rom_start
                0x0009d9f0                Fls_ACWriteRomEnd = acfls_code_rom_end
                0x00000050                Fls_ACWriteSize = (acfls_code_rom_end - acfls_code_rom_start)
                0x1ffe75c0                _ERASE_FUNC_ADDRESS_ = ADDR (.acfls_code_ram)
                0x1ffe75c0                _WRITE_FUNC_ADDRESS_ = ADDR (.acfls_code_ram)
                0x1ffe1000                __ENTRY_VTABLE = __RAM_INTERRUPT_START
OUTPUT(TRO_50147DC333_SW001.elf elf32-littlearm)

.comment        0x00000000       0x80
 .comment       0x00000000       0x80 ./INI/INI.o
                                 0x81 (size before relaxing)
 .comment       0x00000080       0x81 ./Middlewares/CAN/CBUctrl.o
 .comment       0x00000080       0x81 ./Middlewares/CAN/CBUinter.o
 .comment       0x00000080       0x81 ./Middlewares/CAN/CBUmaint.o
 .comment       0x00000080       0x81 ./Middlewares/CAN/CBUs.o
 .comment       0x00000080       0x81 ./Middlewares/FLA/FLA.o
 .comment       0x00000080       0x81 ./Middlewares/SPC/SPC.o
 .comment       0x00000080       0x81 ./Middlewares/WDO_Management/WDO.o
 .comment       0x00000080       0x81 ./Modules/ACTivity_Management/ACT.o
 .comment       0x00000080       0x81 ./Modules/ACTivity_Management/ACTupdat.o
 .comment       0x00000080       0x81 ./Modules/CNV/CNV.o
 .comment       0x00000080       0x81 ./Modules/COM_Management/COM.o
 .comment       0x00000080       0x81 ./Modules/COM_Management/COMrx.o
 .comment       0x00000080       0x81 ./Modules/COM_Management/COMtx.o
 .comment       0x00000080       0x81 ./Modules/CTB/CTB.o
 .comment       0x00000080       0x81 ./Modules/CTB/CTBCbit.o
 .comment       0x00000080       0x81 ./Modules/CTB/CTBPbit.o
 .comment       0x00000080       0x81 ./Modules/CTB/CTBio.o
 .comment       0x00000080       0x81 ./Modules/DBG/DBG.o
 .comment       0x00000080       0x81 ./Modules/FSM/FSM.o
 .comment       0x00000080       0x81 ./Modules/FSM/FSMupdat.o
 .comment       0x00000080       0x81 ./Modules/MPM/MPM.o
 .comment       0x00000080       0x81 ./Modules/PARameters_Management/PAR.o
 .comment       0x00000080       0x81 ./Modules/PARameters_Management/PARcheck.o
 .comment       0x00000080       0x81 ./Modules/PARameters_Management/PARconfig.o
 .comment       0x00000080       0x81 ./Modules/PARameters_Management/PARupdat.o
 .comment       0x00000080       0x81 ./Modules/PWB/PWB.o
 .comment       0x00000080       0x81 ./Modules/PWB/PWBCbit.o
 .comment       0x00000080       0x81 ./Modules/PWB/PWBPbit.o
 .comment       0x00000080       0x81 ./Modules/PWB/PWBio.o
 .comment       0x00000080       0x81 ./Project_Settings/Startup_Code/exceptions.o
 .comment       0x00000080       0x81 ./Project_Settings/Startup_Code/nvic.o
 .comment       0x00000080       0x81 ./Project_Settings/Startup_Code/startup.o
 .comment       0x00000080       0x81 ./Project_Settings/Startup_Code/system.o
 .comment       0x00000080       0x81 ./RTD/src/CDD_Crc.o
 .comment       0x00000080       0x81 ./RTD/src/CDD_Mcl.o
 .comment       0x00000080       0x81 ./RTD/src/CDD_Mcl_Ipw.o
 .comment       0x00000080       0x81 ./RTD/src/CDD_Rm.o
 .comment       0x00000080       0x81 ./RTD/src/CDD_Rm_Ipw.o
 .comment       0x00000080       0x81 ./RTD/src/Can.o
 .comment       0x00000080       0x81 ./RTD/src/Can_Ipw.o
 .comment       0x00000080       0x81 ./RTD/src/Can_Irq.o
 .comment       0x00000080       0x81 ./RTD/src/Clock_Ip.o
 .comment       0x00000080       0x81 ./RTD/src/Clock_Ip_Data.o
 .comment       0x00000080       0x81 ./RTD/src/Clock_Ip_Divider.o
 .comment       0x00000080       0x81 ./RTD/src/Clock_Ip_DividerTrigger.o
 .comment       0x00000080       0x81 ./RTD/src/Clock_Ip_ExtOsc.o
 .comment       0x00000080       0x81 ./RTD/src/Clock_Ip_FracDiv.o
 .comment       0x00000080       0x81 ./RTD/src/Clock_Ip_Frequency.o
 .comment       0x00000080       0x81 ./RTD/src/Clock_Ip_Gate.o
 .comment       0x00000080       0x81 ./RTD/src/Clock_Ip_IntOsc.o
 .comment       0x00000080       0x81 ./RTD/src/Clock_Ip_Irq.o
 .comment       0x00000080       0x81 ./RTD/src/Clock_Ip_Monitor.o
 .comment       0x00000080       0x81 ./RTD/src/Clock_Ip_Pll.o
 .comment       0x00000080       0x81 ./RTD/src/Clock_Ip_ProgFreqSwitch.o
 .comment       0x00000080       0x81 ./RTD/src/Clock_Ip_Selector.o
 .comment       0x00000080       0x81 ./RTD/src/Clock_Ip_Specific.o
 .comment       0x00000080       0x81 ./RTD/src/Cmp_Ip.o
 .comment       0x00000080       0x81 ./RTD/src/Crc_Ip.o
 .comment       0x00000080       0x81 ./RTD/src/Crc_Ip_Hardware.o
 .comment       0x00000080       0x81 ./RTD/src/Crc_Ip_Lookup_Tables.o
 .comment       0x00000080       0x81 ./RTD/src/Crc_Ip_Software.o
 .comment       0x00000080       0x81 ./RTD/src/CryIf.o
 .comment       0x00000080       0x81 ./RTD/src/Crypto.o
 .comment       0x00000080       0x81 ./RTD/src/Crypto_ASRExtension.o
 .comment       0x00000080       0x81 ./RTD/src/Crypto_Ipw.o
 .comment       0x00000080       0x81 ./RTD/src/Crypto_KeyManagement.o
 .comment       0x00000080       0x81 ./RTD/src/Crypto_Util.o
 .comment       0x00000080       0x81 ./RTD/src/Csec_Ip.o
 .comment       0x00000080       0x81 ./RTD/src/Csec_Ip_Irq.o
 .comment       0x00000080       0x81 ./RTD/src/Det.o
 .comment       0x00000080       0x81 ./RTD/src/Det_stub.o
 .comment       0x00000080       0x81 ./RTD/src/Dio.o
 .comment       0x00000080       0x81 ./RTD/src/Dio_Ipw.o
 .comment       0x00000080       0x81 ./RTD/src/Dma_Ip.o
 .comment       0x00000080       0x81 ./RTD/src/Dma_Ip_Driver_State.o
 .comment       0x00000080       0x81 ./RTD/src/Dma_Ip_Hw_Access.o
 .comment       0x00000080       0x81 ./RTD/src/Dma_Ip_Irq.o
 .comment       0x00000080       0x81 ./RTD/src/Dma_Ip_Multicore.o
 .comment       0x00000080       0x81 ./RTD/src/EcuM.o
 .comment       0x00000080       0x81 ./RTD/src/FlexCAN_Ip.o
 .comment       0x00000080       0x81 ./RTD/src/FlexCAN_Ip_HwAccess.o
 .comment       0x00000080       0x81 ./RTD/src/FlexCAN_Ip_Irq.o
 .comment       0x00000080       0x81 ./RTD/src/Flexio_Mcl_Ip.o
 .comment       0x00000080       0x81 ./RTD/src/Flexio_Mcl_Ip_HwAccess.o
 .comment       0x00000080       0x81 ./RTD/src/Flexio_Mcl_Ip_Irq.o
 .comment       0x00000080       0x81 ./RTD/src/Flexio_Pwm_Ip.o
 .comment       0x00000080       0x81 ./RTD/src/Flexio_Pwm_Ip_Irq.o
 .comment       0x00000080       0x81 ./RTD/src/Flexio_Spi_Ip.o
 .comment       0x00000080       0x81 ./RTD/src/Flexio_Spi_Ip_Irq.o
 .comment       0x00000080       0x81 ./RTD/src/Fls.o
 .comment       0x00000080       0x81 ./RTD/src/Fls_IPW.o
 .comment       0x00000080       0x81 ./RTD/src/Ftfc_Fls_Ip.o
 .comment       0x00000080       0x81 ./RTD/src/Ftfc_Fls_Ip_Ac.o
 .comment       0x00000080       0x81 ./RTD/src/Ftm_Gpt_Ip.o
 .comment       0x00000080       0x81 ./RTD/src/Ftm_Icu_Ip.o
 .comment       0x00000080       0x81 ./RTD/src/Ftm_Icu_Ip_Irq.o
 .comment       0x00000080       0x81 ./RTD/src/Ftm_Mcl_Ip.o
 .comment       0x00000080       0x81 ./RTD/src/Ftm_Pwm_Ip.o
 .comment       0x00000080       0x81 ./RTD/src/Ftm_Pwm_Ip_Irq.o
 .comment       0x00000080       0x81 ./RTD/src/Gpio_Dio_Ip.o
 .comment       0x00000080       0x81 ./RTD/src/Gpt.o
 .comment       0x00000080       0x81 ./RTD/src/Gpt_Ipw.o
 .comment       0x00000080       0x81 ./RTD/src/Icu.o
 .comment       0x00000080       0x81 ./RTD/src/Icu_Ipw.o
 .comment       0x00000080       0x81 ./RTD/src/IntCtrl_Ip.o
 .comment       0x00000080       0x81 ./RTD/src/LPit_Gpt_Ip.o
 .comment       0x00000080       0x81 ./RTD/src/Lpit_Icu_Ip.o
 .comment       0x00000080       0x81 ./RTD/src/Lpit_Icu_Ip_Irq.o
 .comment       0x00000080       0x81 ./RTD/src/Lpspi_Ip.o
 .comment       0x00000080       0x81 ./RTD/src/Lpspi_Ip_Irq.o
 .comment       0x00000080       0x81 ./RTD/src/Lptmr_Gpt_Ip.o
 .comment       0x00000080       0x81 ./RTD/src/Lptmr_Icu_Ip.o
 .comment       0x00000080       0x81 ./RTD/src/Lptmr_Icu_Ip_Irq.o
 .comment       0x00000080       0x81 ./RTD/src/Mcu.o
 .comment       0x00000080       0x81 ./RTD/src/Mcu_Dem_Wrapper.o
 .comment       0x00000080       0x81 ./RTD/src/Mcu_Ipw.o
 .comment       0x00000080       0x81 ./RTD/src/Mcu_Ipw_Irq.o
 .comment       0x00000080       0x81 ./RTD/src/Mpu_Ip.o
 .comment       0x00000080       0x81 ./RTD/src/OsIf_Interrupts.o
 .comment       0x00000080       0x81 ./RTD/src/OsIf_Timer.o
 .comment       0x00000080       0x81 ./RTD/src/OsIf_Timer_System.o
 .comment       0x00000080       0x81 ./RTD/src/OsIf_Timer_System_Internal_Systick.o
 .comment       0x00000080       0x81 ./RTD/src/Os_counter_api.o
 .comment       0x00000080       0x81 ./RTD/src/Os_multicore.o
 .comment       0x00000080       0x81 ./RTD/src/Platform.o
 .comment       0x00000080       0x81 ./RTD/src/Platform_Ipw.o
 .comment       0x00000080       0x81 ./RTD/src/Port.o
 .comment       0x00000080       0x81 ./RTD/src/Port_Ci_Icu_Ip.o
 .comment       0x00000080       0x81 ./RTD/src/Port_Ci_Icu_Ip_Irq.o
 .comment       0x00000080       0x81 ./RTD/src/Port_Ci_Port_Ip.o
 .comment       0x00000080       0x81 ./RTD/src/Port_Ipw.o
 .comment       0x00000080       0x81 ./RTD/src/Power_Ip.o
 .comment       0x00000080       0x81 ./RTD/src/Power_Ip_CortexM4.o
 .comment       0x00000080       0x81 ./RTD/src/Power_Ip_PMC.o
 .comment       0x00000080       0x81 ./RTD/src/Power_Ip_PMC_Irq.o
 .comment       0x00000080       0x81 ./RTD/src/Power_Ip_Private.o
 .comment       0x00000080       0x81 ./RTD/src/Power_Ip_RCM.o
 .comment       0x00000080       0x81 ./RTD/src/Power_Ip_RCM_Irq.o
 .comment       0x00000080       0x81 ./RTD/src/Power_Ip_SIM.o
 .comment       0x00000080       0x81 ./RTD/src/Power_Ip_SMC.o
 .comment       0x00000080       0x81 ./RTD/src/Pwm.o
 .comment       0x00000080       0x81 ./RTD/src/Pwm_Ipw.o
 .comment       0x00000080       0x81 ./RTD/src/Pwm_Ipw_Notif.o
 .comment       0x00000080       0x81 ./RTD/src/Qspi_Ip.o
 .comment       0x00000080       0x81 ./RTD/src/Qspi_Ip_Controller.o
 .comment       0x00000080       0x81 ./RTD/src/Qspi_Ip_Sfdp.o
 .comment       0x00000080       0x81 ./RTD/src/Ram_Ip.o
 .comment       0x00000080       0x81 ./RTD/src/SRtc_Ip.o
 .comment       0x00000080       0x81 ./RTD/src/SchM_Can.o
 .comment       0x00000080       0x81 ./RTD/src/SchM_Crc.o
 .comment       0x00000080       0x81 ./RTD/src/SchM_Crypto.o
 .comment       0x00000080       0x81 ./RTD/src/SchM_Dio.o
 .comment       0x00000080       0x81 ./RTD/src/SchM_Fls.o
 .comment       0x00000080       0x81 ./RTD/src/SchM_Gpt.o
 .comment       0x00000080       0x81 ./RTD/src/SchM_Icu.o
 .comment       0x00000080       0x81 ./RTD/src/SchM_Mcl.o
 .comment       0x00000080       0x81 ./RTD/src/SchM_Mcu.o
 .comment       0x00000080       0x81 ./RTD/src/SchM_Port.o
 .comment       0x00000080       0x81 ./RTD/src/SchM_Pwm.o
 .comment       0x00000080       0x81 ./RTD/src/SchM_Rm.o
 .comment       0x00000080       0x81 ./RTD/src/SchM_Spi.o
 .comment       0x00000080       0x81 ./RTD/src/SchM_Wdg.o
 .comment       0x00000080       0x81 ./RTD/src/Spi.o
 .comment       0x00000080       0x81 ./RTD/src/Spi_Ipw.o
 .comment       0x00000080       0x81 ./RTD/src/System_Ip.o
 .comment       0x00000080       0x81 ./RTD/src/Trgmux_Ip.o
 .comment       0x00000080       0x81 ./RTD/src/Trgmux_Ip_HwAcc.o
 .comment       0x00000080       0x81 ./RTD/src/WdgIf.o
 .comment       0x00000080       0x81 ./RTD/src/Wdg_43_Instance0.o
 .comment       0x00000080       0x81 ./RTD/src/Wdg_Channel.o
 .comment       0x00000080       0x81 ./RTD/src/Wdg_Ipw.o
 .comment       0x00000080       0x81 ./RTD/src/Wdg_Ipw_Irq.o
 .comment       0x00000080       0x81 ./RTD/src/Wdog_Ip.o
 .comment       0x00000080       0x81 ./SCHeduler/SCH.o
 .comment       0x00000080       0x81 ./board/Port_Ci_Port_Ip_Cfg.o
 .comment       0x00000080       0x81 ./generate/IntCtrl_Ip/IntCtrl_Ip_Cfg.o
 .comment       0x00000080       0x81 ./generate/src/CDD_Mcl_Cfg.o
 .comment       0x00000080       0x81 ./generate/src/CDD_Mcl_Init_PBcfg.o
 .comment       0x00000080       0x81 ./generate/src/CDD_Rm_Cfg.o
 .comment       0x00000080       0x81 ./generate/src/CDD_Rm_Init_PBcfg.o
 .comment       0x00000080       0x81 ./generate/src/CDD_Rm_Ipw_Init_PBcfg.o
 .comment       0x00000080       0x81 ./generate/src/Can_Init_PBcfg.o
 .comment       0x00000080       0x81 ./generate/src/Can_Ipw_Init_PBcfg.o
 .comment       0x00000080       0x81 ./generate/src/Clock_Ip_Cfg.o
 .comment       0x00000080       0x81 ./generate/src/Clock_Ip_Init_PBcfg.o
 .comment       0x00000080       0x81 ./generate/src/Cmp_Ip_Init_PBcfg.o
 .comment       0x00000080       0x81 ./generate/src/Crc_Cfg.o
 .comment       0x00000080       0x81 ./generate/src/Crc_Ip_Cfg.o
 .comment       0x00000080       0x81 ./generate/src/Crypto_Cfg.o
 .comment       0x00000080       0x81 ./generate/src/Dio_Cfg.o
 .comment       0x00000080       0x81 ./generate/src/Dma_Ip_Cfg.o
 .comment       0x00000080       0x81 ./generate/src/Dma_Ip_Init_PBcfg.o
 .comment       0x00000080       0x81 ./generate/src/FlexCAN_Ip_Init_PBcfg.o
 .comment       0x00000080       0x81 ./generate/src/Flexio_Mcl_Ip_Init_PBcfg.o
 .comment       0x00000080       0x81 ./generate/src/Flexio_Pwm_Ip_Init_PBcfg.o
 .comment       0x00000080       0x81 ./generate/src/Flexio_Spi_Ip_Init_PBcfg.o
 .comment       0x00000080       0x81 ./generate/src/Fls_Cfg.o
 .comment       0x00000080       0x81 ./generate/src/Fls_Init_PBcfg.o
 .comment       0x00000080       0x81 ./generate/src/Ftfc_Fls_Ip_Init_PBcfg.o
 .comment       0x00000080       0x81 ./generate/src/Ftm_Gpt_Ip_Init_PBcfg.o
 .comment       0x00000080       0x81 ./generate/src/Ftm_Icu_Ip_Init_PBcfg.o
 .comment       0x00000080       0x81 ./generate/src/Ftm_Pwm_Ip_Init_PBcfg.o
 .comment       0x00000080       0x81 ./generate/src/Gpt_Cfg.o
 .comment       0x00000080       0x81 ./generate/src/Gpt_Init_PBcfg.o
 .comment       0x00000080       0x81 ./generate/src/Gpt_Ipw_Init_PBcfg.o
 .comment       0x00000080       0x81 ./generate/src/Icu_Cfg.o
 .comment       0x00000080       0x81 ./generate/src/Icu_DmaNotification.o
 .comment       0x00000080       0x81 ./generate/src/Icu_Init_PBcfg.o
 .comment       0x00000080       0x81 ./generate/src/Icu_Ipw_Init_PBcfg.o
 .comment       0x00000080       0x81 ./generate/src/LPit_Gpt_Ip_Init_PBcfg.o
 .comment       0x00000080       0x81 ./generate/src/Lpit_Icu_Ip_Init_PBcfg.o
 .comment       0x00000080       0x81 ./generate/src/Lpspi_Ip_Init_PBcfg.o
 .comment       0x00000080       0x81 ./generate/src/Lptmr_Gpt_Ip_Init_PBcfg.o
 .comment       0x00000080       0x81 ./generate/src/Lptmr_Icu_Ip_Init_PBcfg.o
 .comment       0x00000080       0x81 ./generate/src/Mcu_Cfg.o
 .comment       0x00000080       0x81 ./generate/src/Mcu_Init_PBcfg.o
 .comment       0x00000080       0x81 ./generate/src/Mpu_Ip_Init_PBcfg.o
 .comment       0x00000080       0x81 ./generate/src/OsIf_Cfg.o
 .comment       0x00000080       0x81 ./generate/src/Platform_Cfg.o
 .comment       0x00000080       0x81 ./generate/src/Platform_Ipw_Cfg.o
 .comment       0x00000080       0x81 ./generate/src/Port_Cfg.o
 .comment       0x00000080       0x81 ./generate/src/Port_Ci_Icu_Ip_Init_PBcfg.o
 .comment       0x00000080       0x81 ./generate/src/Port_Ci_Port_Ip_Init_PBcfg.o
 .comment       0x00000080       0x81 ./generate/src/Port_Init_PBcfg.o
 .comment       0x00000080       0x81 ./generate/src/Power_Ip_Cfg.o
 .comment       0x00000080       0x81 ./generate/src/Power_Ip_Init_PBcfg.o
 .comment       0x00000080       0x81 ./generate/src/Pwm_Init_PBcfg.o
 .comment       0x00000080       0x81 ./generate/src/Qspi_Ip_Init_PBcfg.o
 .comment       0x00000080       0x81 ./generate/src/Ram_Ip_Cfg.o
 .comment       0x00000080       0x81 ./generate/src/Ram_Ip_Init_PBcfg.o
 .comment       0x00000080       0x81 ./generate/src/SRtc_Ip_Init_PBcfg.o
 .comment       0x00000080       0x81 ./generate/src/Spi_Init_PBcfg.o
 .comment       0x00000080       0x81 ./generate/src/Spi_Ipw_Init_PBcfg.o
 .comment       0x00000080       0x81 ./generate/src/Trgmux_Ip_Cfg.o
 .comment       0x00000080       0x81 ./generate/src/Trgmux_Ip_Init_PBcfg.o
 .comment       0x00000080       0x81 ./generate/src/Wdg_43_Instance0_Cfg.o
 .comment       0x00000080       0x81 ./generate/src/Wdg_43_Instance0_Init_PBcfg.o
 .comment       0x00000080       0x81 ./generate/src/Wdg_43_Instance0_Ipw_Init_PBcfg.o
 .comment       0x00000080       0x81 ./generate/src/Wdg_CfgExt.o
 .comment       0x00000080       0x81 ./generate/src/Wdog_Ip_Init_PBcfg.o
 .comment       0x00000080       0x81 ./src/main.o

.ARM.attributes
                0x00000000       0x32
 .ARM.attributes
                0x00000000       0x34 ./INI/INI.o
 .ARM.attributes
                0x00000034       0x34 ./Middlewares/CAN/CBUctrl.o
 .ARM.attributes
                0x00000068       0x34 ./Middlewares/CAN/CBUinter.o
 .ARM.attributes
                0x0000009c       0x34 ./Middlewares/CAN/CBUmaint.o
 .ARM.attributes
                0x000000d0       0x34 ./Middlewares/CAN/CBUs.o
 .ARM.attributes
                0x00000104       0x34 ./Middlewares/FLA/FLA.o
 .ARM.attributes
                0x00000138       0x34 ./Middlewares/SPC/SPC.o
 .ARM.attributes
                0x0000016c       0x34 ./Middlewares/WDO_Management/WDO.o
 .ARM.attributes
                0x000001a0       0x34 ./Modules/ACTivity_Management/ACT.o
 .ARM.attributes
                0x000001d4       0x34 ./Modules/ACTivity_Management/ACTupdat.o
 .ARM.attributes
                0x00000208       0x34 ./Modules/CNV/CNV.o
 .ARM.attributes
                0x0000023c       0x34 ./Modules/COM_Management/COM.o
 .ARM.attributes
                0x00000270       0x34 ./Modules/COM_Management/COMrx.o
 .ARM.attributes
                0x000002a4       0x34 ./Modules/COM_Management/COMtx.o
 .ARM.attributes
                0x000002d8       0x34 ./Modules/CTB/CTB.o
 .ARM.attributes
                0x0000030c       0x34 ./Modules/CTB/CTBCbit.o
 .ARM.attributes
                0x00000340       0x34 ./Modules/CTB/CTBPbit.o
 .ARM.attributes
                0x00000374       0x34 ./Modules/CTB/CTBio.o
 .ARM.attributes
                0x000003a8       0x34 ./Modules/DBG/DBG.o
 .ARM.attributes
                0x000003dc       0x34 ./Modules/FSM/FSM.o
 .ARM.attributes
                0x00000410       0x34 ./Modules/FSM/FSMupdat.o
 .ARM.attributes
                0x00000444       0x34 ./Modules/MPM/MPM.o
 .ARM.attributes
                0x00000478       0x34 ./Modules/PARameters_Management/PAR.o
 .ARM.attributes
                0x000004ac       0x34 ./Modules/PARameters_Management/PARcheck.o
 .ARM.attributes
                0x000004e0       0x39 ./Modules/PARameters_Management/PARconfig.o
 .ARM.attributes
                0x00000519       0x34 ./Modules/PARameters_Management/PARupdat.o
 .ARM.attributes
                0x0000054d       0x34 ./Modules/PWB/PWB.o
 .ARM.attributes
                0x00000581       0x34 ./Modules/PWB/PWBCbit.o
 .ARM.attributes
                0x000005b5       0x34 ./Modules/PWB/PWBPbit.o
 .ARM.attributes
                0x000005e9       0x34 ./Modules/PWB/PWBio.o
 .ARM.attributes
                0x0000061d       0x20 ./Project_Settings/Startup_Code/Vector_Table.o
 .ARM.attributes
                0x0000063d       0x34 ./Project_Settings/Startup_Code/exceptions.o
 .ARM.attributes
                0x00000671       0x34 ./Project_Settings/Startup_Code/nvic.o
 .ARM.attributes
                0x000006a5       0x34 ./Project_Settings/Startup_Code/startup.o
 .ARM.attributes
                0x000006d9       0x1f ./Project_Settings/Startup_Code/startup_cm4.o
 .ARM.attributes
                0x000006f8       0x34 ./Project_Settings/Startup_Code/system.o
 .ARM.attributes
                0x0000072c       0x34 ./RTD/src/CDD_Crc.o
 .ARM.attributes
                0x00000760       0x34 ./RTD/src/CDD_Mcl.o
 .ARM.attributes
                0x00000794       0x39 ./RTD/src/CDD_Mcl_Ipw.o
 .ARM.attributes
                0x000007cd       0x34 ./RTD/src/CDD_Rm.o
 .ARM.attributes
                0x00000801       0x34 ./RTD/src/CDD_Rm_Ipw.o
 .ARM.attributes
                0x00000835       0x34 ./RTD/src/Can.o
 .ARM.attributes
                0x00000869       0x34 ./RTD/src/Can_Ipw.o
 .ARM.attributes
                0x0000089d       0x34 ./RTD/src/Can_Irq.o
 .ARM.attributes
                0x000008d1       0x34 ./RTD/src/Clock_Ip.o
 .ARM.attributes
                0x00000905       0x39 ./RTD/src/Clock_Ip_Data.o
 .ARM.attributes
                0x0000093e       0x34 ./RTD/src/Clock_Ip_Divider.o
 .ARM.attributes
                0x00000972       0x34 ./RTD/src/Clock_Ip_DividerTrigger.o
 .ARM.attributes
                0x000009a6       0x34 ./RTD/src/Clock_Ip_ExtOsc.o
 .ARM.attributes
                0x000009da       0x34 ./RTD/src/Clock_Ip_FracDiv.o
 .ARM.attributes
                0x00000a0e       0x34 ./RTD/src/Clock_Ip_Frequency.o
 .ARM.attributes
                0x00000a42       0x34 ./RTD/src/Clock_Ip_Gate.o
 .ARM.attributes
                0x00000a76       0x34 ./RTD/src/Clock_Ip_IntOsc.o
 .ARM.attributes
                0x00000aaa       0x39 ./RTD/src/Clock_Ip_Irq.o
 .ARM.attributes
                0x00000ae3       0x34 ./RTD/src/Clock_Ip_Monitor.o
 .ARM.attributes
                0x00000b17       0x34 ./RTD/src/Clock_Ip_Pll.o
 .ARM.attributes
                0x00000b4b       0x34 ./RTD/src/Clock_Ip_ProgFreqSwitch.o
 .ARM.attributes
                0x00000b7f       0x34 ./RTD/src/Clock_Ip_Selector.o
 .ARM.attributes
                0x00000bb3       0x34 ./RTD/src/Clock_Ip_Specific.o
 .ARM.attributes
                0x00000be7       0x34 ./RTD/src/Cmp_Ip.o
 .ARM.attributes
                0x00000c1b       0x34 ./RTD/src/Crc_Ip.o
 .ARM.attributes
                0x00000c4f       0x34 ./RTD/src/Crc_Ip_Hardware.o
 .ARM.attributes
                0x00000c83       0x34 ./RTD/src/Crc_Ip_Lookup_Tables.o
 .ARM.attributes
                0x00000cb7       0x34 ./RTD/src/Crc_Ip_Software.o
 .ARM.attributes
                0x00000ceb       0x34 ./RTD/src/CryIf.o
 .ARM.attributes
                0x00000d1f       0x34 ./RTD/src/Crypto.o
 .ARM.attributes
                0x00000d53       0x34 ./RTD/src/Crypto_ASRExtension.o
 .ARM.attributes
                0x00000d87       0x34 ./RTD/src/Crypto_Ipw.o
 .ARM.attributes
                0x00000dbb       0x39 ./RTD/src/Crypto_KeyManagement.o
 .ARM.attributes
                0x00000df4       0x34 ./RTD/src/Crypto_Util.o
 .ARM.attributes
                0x00000e28       0x34 ./RTD/src/Csec_Ip.o
 .ARM.attributes
                0x00000e5c       0x34 ./RTD/src/Csec_Ip_Irq.o
 .ARM.attributes
                0x00000e90       0x34 ./RTD/src/Det.o
 .ARM.attributes
                0x00000ec4       0x34 ./RTD/src/Det_stub.o
 .ARM.attributes
                0x00000ef8       0x34 ./RTD/src/Dio.o
 .ARM.attributes
                0x00000f2c       0x34 ./RTD/src/Dio_Ipw.o
 .ARM.attributes
                0x00000f60       0x34 ./RTD/src/Dma_Ip.o
 .ARM.attributes
                0x00000f94       0x34 ./RTD/src/Dma_Ip_Driver_State.o
 .ARM.attributes
                0x00000fc8       0x34 ./RTD/src/Dma_Ip_Hw_Access.o
 .ARM.attributes
                0x00000ffc       0x34 ./RTD/src/Dma_Ip_Irq.o
 .ARM.attributes
                0x00001030       0x39 ./RTD/src/Dma_Ip_Multicore.o
 .ARM.attributes
                0x00001069       0x34 ./RTD/src/EcuM.o
 .ARM.attributes
                0x0000109d       0x34 ./RTD/src/FlexCAN_Ip.o
 .ARM.attributes
                0x000010d1       0x34 ./RTD/src/FlexCAN_Ip_HwAccess.o
 .ARM.attributes
                0x00001105       0x34 ./RTD/src/FlexCAN_Ip_Irq.o
 .ARM.attributes
                0x00001139       0x34 ./RTD/src/Flexio_Mcl_Ip.o
 .ARM.attributes
                0x0000116d       0x34 ./RTD/src/Flexio_Mcl_Ip_HwAccess.o
 .ARM.attributes
                0x000011a1       0x34 ./RTD/src/Flexio_Mcl_Ip_Irq.o
 .ARM.attributes
                0x000011d5       0x34 ./RTD/src/Flexio_Pwm_Ip.o
 .ARM.attributes
                0x00001209       0x34 ./RTD/src/Flexio_Pwm_Ip_Irq.o
 .ARM.attributes
                0x0000123d       0x39 ./RTD/src/Flexio_Spi_Ip.o
 .ARM.attributes
                0x00001276       0x39 ./RTD/src/Flexio_Spi_Ip_Irq.o
 .ARM.attributes
                0x000012af       0x34 ./RTD/src/Fls.o
 .ARM.attributes
                0x000012e3       0x34 ./RTD/src/Fls_IPW.o
 .ARM.attributes
                0x00001317       0x34 ./RTD/src/Ftfc_Fls_Ip.o
 .ARM.attributes
                0x0000134b       0x34 ./RTD/src/Ftfc_Fls_Ip_Ac.o
 .ARM.attributes
                0x0000137f       0x39 ./RTD/src/Ftm_Gpt_Ip.o
 .ARM.attributes
                0x000013b8       0x34 ./RTD/src/Ftm_Icu_Ip.o
 .ARM.attributes
                0x000013ec       0x39 ./RTD/src/Ftm_Icu_Ip_Irq.o
 .ARM.attributes
                0x00001425       0x39 ./RTD/src/Ftm_Mcl_Ip.o
 .ARM.attributes
                0x0000145e       0x34 ./RTD/src/Ftm_Pwm_Ip.o
 .ARM.attributes
                0x00001492       0x39 ./RTD/src/Ftm_Pwm_Ip_Irq.o
 .ARM.attributes
                0x000014cb       0x34 ./RTD/src/Gpio_Dio_Ip.o
 .ARM.attributes
                0x000014ff       0x34 ./RTD/src/Gpt.o
 .ARM.attributes
                0x00001533       0x34 ./RTD/src/Gpt_Ipw.o
 .ARM.attributes
                0x00001567       0x34 ./RTD/src/Icu.o
 .ARM.attributes
                0x0000159b       0x34 ./RTD/src/Icu_Ipw.o
 .ARM.attributes
                0x000015cf       0x34 ./RTD/src/IntCtrl_Ip.o
 .ARM.attributes
                0x00001603       0x34 ./RTD/src/LPit_Gpt_Ip.o
 .ARM.attributes
                0x00001637       0x34 ./RTD/src/Lpit_Icu_Ip.o
 .ARM.attributes
                0x0000166b       0x39 ./RTD/src/Lpit_Icu_Ip_Irq.o
 .ARM.attributes
                0x000016a4       0x34 ./RTD/src/Lpspi_Ip.o
 .ARM.attributes
                0x000016d8       0x34 ./RTD/src/Lpspi_Ip_Irq.o
 .ARM.attributes
                0x0000170c       0x39 ./RTD/src/Lptmr_Gpt_Ip.o
 .ARM.attributes
                0x00001745       0x34 ./RTD/src/Lptmr_Icu_Ip.o
 .ARM.attributes
                0x00001779       0x39 ./RTD/src/Lptmr_Icu_Ip_Irq.o
 .ARM.attributes
                0x000017b2       0x34 ./RTD/src/Mcu.o
 .ARM.attributes
                0x000017e6       0x39 ./RTD/src/Mcu_Dem_Wrapper.o
 .ARM.attributes
                0x0000181f       0x34 ./RTD/src/Mcu_Ipw.o
 .ARM.attributes
                0x00001853       0x39 ./RTD/src/Mcu_Ipw_Irq.o
 .ARM.attributes
                0x0000188c       0x34 ./RTD/src/Mpu_Ip.o
 .ARM.attributes
                0x000018c0       0x39 ./RTD/src/OsIf_Interrupts.o
 .ARM.attributes
                0x000018f9       0x34 ./RTD/src/OsIf_Timer.o
 .ARM.attributes
                0x0000192d       0x39 ./RTD/src/OsIf_Timer_System.o
 .ARM.attributes
                0x00001966       0x34 ./RTD/src/OsIf_Timer_System_Internal_Systick.o
 .ARM.attributes
                0x0000199a       0x34 ./RTD/src/Os_counter_api.o
 .ARM.attributes
                0x000019ce       0x39 ./RTD/src/Os_multicore.o
 .ARM.attributes
                0x00001a07       0x34 ./RTD/src/Platform.o
 .ARM.attributes
                0x00001a3b       0x34 ./RTD/src/Platform_Ipw.o
 .ARM.attributes
                0x00001a6f       0x34 ./RTD/src/Port.o
 .ARM.attributes
                0x00001aa3       0x34 ./RTD/src/Port_Ci_Icu_Ip.o
 .ARM.attributes
                0x00001ad7       0x34 ./RTD/src/Port_Ci_Icu_Ip_Irq.o
 .ARM.attributes
                0x00001b0b       0x34 ./RTD/src/Port_Ci_Port_Ip.o
 .ARM.attributes
                0x00001b3f       0x34 ./RTD/src/Port_Ipw.o
 .ARM.attributes
                0x00001b73       0x34 ./RTD/src/Power_Ip.o
 .ARM.attributes
                0x00001ba7       0x34 ./RTD/src/Power_Ip_CortexM4.o
 .ARM.attributes
                0x00001bdb       0x34 ./RTD/src/Power_Ip_PMC.o
 .ARM.attributes
                0x00001c0f       0x39 ./RTD/src/Power_Ip_PMC_Irq.o
 .ARM.attributes
                0x00001c48       0x34 ./RTD/src/Power_Ip_Private.o
 .ARM.attributes
                0x00001c7c       0x34 ./RTD/src/Power_Ip_RCM.o
 .ARM.attributes
                0x00001cb0       0x39 ./RTD/src/Power_Ip_RCM_Irq.o
 .ARM.attributes
                0x00001ce9       0x39 ./RTD/src/Power_Ip_SIM.o
 .ARM.attributes
                0x00001d22       0x34 ./RTD/src/Power_Ip_SMC.o
 .ARM.attributes
                0x00001d56       0x34 ./RTD/src/Pwm.o
 .ARM.attributes
                0x00001d8a       0x34 ./RTD/src/Pwm_Ipw.o
 .ARM.attributes
                0x00001dbe       0x39 ./RTD/src/Pwm_Ipw_Notif.o
 .ARM.attributes
                0x00001df7       0x39 ./RTD/src/Qspi_Ip.o
 .ARM.attributes
                0x00001e30       0x39 ./RTD/src/Qspi_Ip_Controller.o
 .ARM.attributes
                0x00001e69       0x39 ./RTD/src/Qspi_Ip_Sfdp.o
 .ARM.attributes
                0x00001ea2       0x34 ./RTD/src/Ram_Ip.o
 .ARM.attributes
                0x00001ed6       0x39 ./RTD/src/SRtc_Ip.o
 .ARM.attributes
                0x00001f0f       0x34 ./RTD/src/SchM_Can.o
 .ARM.attributes
                0x00001f43       0x34 ./RTD/src/SchM_Crc.o
 .ARM.attributes
                0x00001f77       0x34 ./RTD/src/SchM_Crypto.o
 .ARM.attributes
                0x00001fab       0x34 ./RTD/src/SchM_Dio.o
 .ARM.attributes
                0x00001fdf       0x34 ./RTD/src/SchM_Fls.o
 .ARM.attributes
                0x00002013       0x34 ./RTD/src/SchM_Gpt.o
 .ARM.attributes
                0x00002047       0x34 ./RTD/src/SchM_Icu.o
 .ARM.attributes
                0x0000207b       0x34 ./RTD/src/SchM_Mcl.o
 .ARM.attributes
                0x000020af       0x34 ./RTD/src/SchM_Mcu.o
 .ARM.attributes
                0x000020e3       0x34 ./RTD/src/SchM_Port.o
 .ARM.attributes
                0x00002117       0x34 ./RTD/src/SchM_Pwm.o
 .ARM.attributes
                0x0000214b       0x34 ./RTD/src/SchM_Rm.o
 .ARM.attributes
                0x0000217f       0x34 ./RTD/src/SchM_Spi.o
 .ARM.attributes
                0x000021b3       0x34 ./RTD/src/SchM_Wdg.o
 .ARM.attributes
                0x000021e7       0x34 ./RTD/src/Spi.o
 .ARM.attributes
                0x0000221b       0x34 ./RTD/src/Spi_Ipw.o
 .ARM.attributes
                0x0000224f       0x34 ./RTD/src/System_Ip.o
 .ARM.attributes
                0x00002283       0x34 ./RTD/src/Trgmux_Ip.o
 .ARM.attributes
                0x000022b7       0x34 ./RTD/src/Trgmux_Ip_HwAcc.o
 .ARM.attributes
                0x000022eb       0x39 ./RTD/src/WdgIf.o
 .ARM.attributes
                0x00002324       0x34 ./RTD/src/Wdg_43_Instance0.o
 .ARM.attributes
                0x00002358       0x34 ./RTD/src/Wdg_Channel.o
 .ARM.attributes
                0x0000238c       0x34 ./RTD/src/Wdg_Ipw.o
 .ARM.attributes
                0x000023c0       0x39 ./RTD/src/Wdg_Ipw_Irq.o
 .ARM.attributes
                0x000023f9       0x34 ./RTD/src/Wdog_Ip.o
 .ARM.attributes
                0x0000242d       0x34 ./SCHeduler/SCH.o
 .ARM.attributes
                0x00002461       0x39 ./board/Port_Ci_Port_Ip_Cfg.o
 .ARM.attributes
                0x0000249a       0x39 ./generate/IntCtrl_Ip/IntCtrl_Ip_Cfg.o
 .ARM.attributes
                0x000024d3       0x39 ./generate/src/CDD_Mcl_Cfg.o
 .ARM.attributes
                0x0000250c       0x39 ./generate/src/CDD_Mcl_Init_PBcfg.o
 .ARM.attributes
                0x00002545       0x39 ./generate/src/CDD_Rm_Cfg.o
 .ARM.attributes
                0x0000257e       0x39 ./generate/src/CDD_Rm_Init_PBcfg.o
 .ARM.attributes
                0x000025b7       0x39 ./generate/src/CDD_Rm_Ipw_Init_PBcfg.o
 .ARM.attributes
                0x000025f0       0x39 ./generate/src/Can_Init_PBcfg.o
 .ARM.attributes
                0x00002629       0x39 ./generate/src/Can_Ipw_Init_PBcfg.o
 .ARM.attributes
                0x00002662       0x39 ./generate/src/Clock_Ip_Cfg.o
 .ARM.attributes
                0x0000269b       0x39 ./generate/src/Clock_Ip_Init_PBcfg.o
 .ARM.attributes
                0x000026d4       0x39 ./generate/src/Cmp_Ip_Init_PBcfg.o
 .ARM.attributes
                0x0000270d       0x39 ./generate/src/Crc_Cfg.o
 .ARM.attributes
                0x00002746       0x39 ./generate/src/Crc_Ip_Cfg.o
 .ARM.attributes
                0x0000277f       0x39 ./generate/src/Crypto_Cfg.o
 .ARM.attributes
                0x000027b8       0x39 ./generate/src/Dio_Cfg.o
 .ARM.attributes
                0x000027f1       0x39 ./generate/src/Dma_Ip_Cfg.o
 .ARM.attributes
                0x0000282a       0x39 ./generate/src/Dma_Ip_Init_PBcfg.o
 .ARM.attributes
                0x00002863       0x39 ./generate/src/FlexCAN_Ip_Init_PBcfg.o
 .ARM.attributes
                0x0000289c       0x39 ./generate/src/Flexio_Mcl_Ip_Init_PBcfg.o
 .ARM.attributes
                0x000028d5       0x39 ./generate/src/Flexio_Pwm_Ip_Init_PBcfg.o
 .ARM.attributes
                0x0000290e       0x39 ./generate/src/Flexio_Spi_Ip_Init_PBcfg.o
 .ARM.attributes
                0x00002947       0x39 ./generate/src/Fls_Cfg.o
 .ARM.attributes
                0x00002980       0x39 ./generate/src/Fls_Init_PBcfg.o
 .ARM.attributes
                0x000029b9       0x39 ./generate/src/Ftfc_Fls_Ip_Init_PBcfg.o
 .ARM.attributes
                0x000029f2       0x39 ./generate/src/Ftm_Gpt_Ip_Init_PBcfg.o
 .ARM.attributes
                0x00002a2b       0x39 ./generate/src/Ftm_Icu_Ip_Init_PBcfg.o
 .ARM.attributes
                0x00002a64       0x39 ./generate/src/Ftm_Pwm_Ip_Init_PBcfg.o
 .ARM.attributes
                0x00002a9d       0x39 ./generate/src/Gpt_Cfg.o
 .ARM.attributes
                0x00002ad6       0x39 ./generate/src/Gpt_Init_PBcfg.o
 .ARM.attributes
                0x00002b0f       0x39 ./generate/src/Gpt_Ipw_Init_PBcfg.o
 .ARM.attributes
                0x00002b48       0x39 ./generate/src/Icu_Cfg.o
 .ARM.attributes
                0x00002b81       0x39 ./generate/src/Icu_DmaNotification.o
 .ARM.attributes
                0x00002bba       0x39 ./generate/src/Icu_Init_PBcfg.o
 .ARM.attributes
                0x00002bf3       0x39 ./generate/src/Icu_Ipw_Init_PBcfg.o
 .ARM.attributes
                0x00002c2c       0x39 ./generate/src/LPit_Gpt_Ip_Init_PBcfg.o
 .ARM.attributes
                0x00002c65       0x39 ./generate/src/Lpit_Icu_Ip_Init_PBcfg.o
 .ARM.attributes
                0x00002c9e       0x39 ./generate/src/Lpspi_Ip_Init_PBcfg.o
 .ARM.attributes
                0x00002cd7       0x39 ./generate/src/Lptmr_Gpt_Ip_Init_PBcfg.o
 .ARM.attributes
                0x00002d10       0x39 ./generate/src/Lptmr_Icu_Ip_Init_PBcfg.o
 .ARM.attributes
                0x00002d49       0x39 ./generate/src/Mcu_Cfg.o
 .ARM.attributes
                0x00002d82       0x39 ./generate/src/Mcu_Init_PBcfg.o
 .ARM.attributes
                0x00002dbb       0x39 ./generate/src/Mpu_Ip_Init_PBcfg.o
 .ARM.attributes
                0x00002df4       0x39 ./generate/src/OsIf_Cfg.o
 .ARM.attributes
                0x00002e2d       0x39 ./generate/src/Platform_Cfg.o
 .ARM.attributes
                0x00002e66       0x39 ./generate/src/Platform_Ipw_Cfg.o
 .ARM.attributes
                0x00002e9f       0x39 ./generate/src/Port_Cfg.o
 .ARM.attributes
                0x00002ed8       0x39 ./generate/src/Port_Ci_Icu_Ip_Init_PBcfg.o
 .ARM.attributes
                0x00002f11       0x39 ./generate/src/Port_Ci_Port_Ip_Init_PBcfg.o
 .ARM.attributes
                0x00002f4a       0x39 ./generate/src/Port_Init_PBcfg.o
 .ARM.attributes
                0x00002f83       0x39 ./generate/src/Power_Ip_Cfg.o
 .ARM.attributes
                0x00002fbc       0x39 ./generate/src/Power_Ip_Init_PBcfg.o
 .ARM.attributes
                0x00002ff5       0x39 ./generate/src/Pwm_Init_PBcfg.o
 .ARM.attributes
                0x0000302e       0x39 ./generate/src/Qspi_Ip_Init_PBcfg.o
 .ARM.attributes
                0x00003067       0x39 ./generate/src/Ram_Ip_Cfg.o
 .ARM.attributes
                0x000030a0       0x39 ./generate/src/Ram_Ip_Init_PBcfg.o
 .ARM.attributes
                0x000030d9       0x39 ./generate/src/SRtc_Ip_Init_PBcfg.o
 .ARM.attributes
                0x00003112       0x39 ./generate/src/Spi_Init_PBcfg.o
 .ARM.attributes
                0x0000314b       0x39 ./generate/src/Spi_Ipw_Init_PBcfg.o
 .ARM.attributes
                0x00003184       0x39 ./generate/src/Trgmux_Ip_Cfg.o
 .ARM.attributes
                0x000031bd       0x39 ./generate/src/Trgmux_Ip_Init_PBcfg.o
 .ARM.attributes
                0x000031f6       0x39 ./generate/src/Wdg_43_Instance0_Cfg.o
 .ARM.attributes
                0x0000322f       0x39 ./generate/src/Wdg_43_Instance0_Init_PBcfg.o
 .ARM.attributes
                0x00003268       0x39 ./generate/src/Wdg_43_Instance0_Ipw_Init_PBcfg.o
 .ARM.attributes
                0x000032a1       0x39 ./generate/src/Wdg_CfgExt.o
 .ARM.attributes
                0x000032da       0x39 ./generate/src/Wdog_Ip_Init_PBcfg.o
 .ARM.attributes
                0x00003313       0x34 ./src/main.o
 .ARM.attributes
                0x00003347       0x34 C:/NXP/S32DS.3.4/S32DS/build_tools/gcc_v9.2/gcc-9.2-arm32-eabi/arm-none-eabi/newlib/lib/thumb/v7e-m+fp/hard\libc_nano.a(lib_a-memcpy-stub.o)

.debug_frame    0x00000000       0x28
 .debug_frame   0x00000000       0x28 C:/NXP/S32DS.3.4/S32DS/build_tools/gcc_v9.2/gcc-9.2-arm32-eabi/arm-none-eabi/newlib/lib/thumb/v7e-m+fp/hard\libc_nano.a(lib_a-memcpy-stub.o)
